ARM GAS  C:\Users\BANELE~1\AppData\Local\Temp\cc8Zst6e.s 			page 1


   1              		.cpu cortex-m4
   2              		.arch armv7e-m
   3              		.fpu fpv4-sp-d16
   4              		.eabi_attribute 27, 1
   5              		.eabi_attribute 28, 1
   6              		.eabi_attribute 20, 1
   7              		.eabi_attribute 21, 1
   8              		.eabi_attribute 23, 3
   9              		.eabi_attribute 24, 1
  10              		.eabi_attribute 25, 1
  11              		.eabi_attribute 26, 1
  12              		.eabi_attribute 30, 1
  13              		.eabi_attribute 34, 1
  14              		.eabi_attribute 18, 4
  15              		.file	"main.c"
  16              		.text
  17              	.Ltext0:
  18              		.cfi_sections	.debug_frame
  19              		.file 1 "Core/Src/main.c"
  20              		.section	.text.MX_GPIO_Init,"ax",%progbits
  21              		.align	1
  22              		.syntax unified
  23              		.thumb
  24              		.thumb_func
  26              	MX_GPIO_Init:
  27              	.LFB140:
   1:Core/Src/main.c **** /* USER CODE BEGIN Header */
   2:Core/Src/main.c **** /**
   3:Core/Src/main.c ****   ******************************************************************************
   4:Core/Src/main.c ****   * @file           : main.c
   5:Core/Src/main.c ****   * @brief          : Main program body
   6:Core/Src/main.c ****   ******************************************************************************
   7:Core/Src/main.c ****   * @attention
   8:Core/Src/main.c ****   *
   9:Core/Src/main.c ****   * Copyright (c) 2025 STMicroelectronics.
  10:Core/Src/main.c ****   * All rights reserved.
  11:Core/Src/main.c ****   *
  12:Core/Src/main.c ****   * This software is licensed under terms that can be found in the LICENSE file
  13:Core/Src/main.c ****   * in the root directory of this software component.
  14:Core/Src/main.c ****   * If no LICENSE file comes with this software, it is provided AS-IS.
  15:Core/Src/main.c ****   *
  16:Core/Src/main.c ****   ******************************************************************************
  17:Core/Src/main.c ****   */
  18:Core/Src/main.c **** /* USER CODE END Header */
  19:Core/Src/main.c **** /* Includes ------------------------------------------------------------------*/
  20:Core/Src/main.c **** #include "main.h"
  21:Core/Src/main.c **** 
  22:Core/Src/main.c **** /* Private includes ----------------------------------------------------------*/
  23:Core/Src/main.c **** /* USER CODE BEGIN Includes */
  24:Core/Src/main.c **** #include <stdint.h>
  25:Core/Src/main.c **** #include <math.h>
  26:Core/Src/main.c **** #include "core_cm4.h"
  27:Core/Src/main.c **** #include <stdio.h>
  28:Core/Src/main.c **** #include <inttypes.h>
  29:Core/Src/main.c **** /* USER CODE END Includes */
  30:Core/Src/main.c **** 
  31:Core/Src/main.c **** /* Private typedef -----------------------------------------------------------*/
ARM GAS  C:\Users\BANELE~1\AppData\Local\Temp\cc8Zst6e.s 			page 2


  32:Core/Src/main.c **** /* USER CODE BEGIN PTD */
  33:Core/Src/main.c **** typedef struct {
  34:Core/Src/main.c ****     uint16_t width;
  35:Core/Src/main.c ****     uint16_t height;
  36:Core/Src/main.c ****     uint32_t exec_time_ms;
  37:Core/Src/main.c ****     uint64_t checksum;
  38:Core/Src/main.c **** } Task1Result;
  39:Core/Src/main.c **** typedef struct {
  40:Core/Src/main.c ****     uint16_t width;
  41:Core/Src/main.c ****     uint16_t height;
  42:Core/Src/main.c ****     uint32_t exec_time_ms;
  43:Core/Src/main.c ****     uint16_t max_iter;
  44:Core/Src/main.c ****     uint64_t checksum;
  45:Core/Src/main.c **** } Task2Result;
  46:Core/Src/main.c **** 
  47:Core/Src/main.c **** typedef struct {
  48:Core/Src/main.c ****     uint16_t width;
  49:Core/Src/main.c ****     uint16_t height;
  50:Core/Src/main.c ****     uint32_t exec_time_ms;
  51:Core/Src/main.c ****     uint16_t max_iter;
  52:Core/Src/main.c ****     uint64_t checksum;
  53:Core/Src/main.c ****     uint32_t cpu_cycles;
  54:Core/Src/main.c ****     float throughput_pixels_per_sec;
  55:Core/Src/main.c **** } Task3Result;
  56:Core/Src/main.c **** 
  57:Core/Src/main.c **** typedef struct {
  58:Core/Src/main.c ****     uint16_t width;
  59:Core/Src/main.c ****     uint16_t height;
  60:Core/Src/main.c ****     uint32_t exec_time_ms;
  61:Core/Src/main.c ****     uint64_t checksum;
  62:Core/Src/main.c ****     uint8_t processed_in_parts; // 0 = single run, 1-255 = number of parts
  63:Core/Src/main.c **** } Task4Result;
  64:Core/Src/main.c **** 
  65:Core/Src/main.c **** typedef struct {
  66:Core/Src/main.c ****     uint16_t width;
  67:Core/Src/main.c ****     uint16_t height;
  68:Core/Src/main.c ****     uint32_t exec_time_ms;
  69:Core/Src/main.c ****     uint64_t checksum;
  70:Core/Src/main.c ****     uint32_t cpu_cycles;
  71:Core/Src/main.c ****     float throughput_pixels_per_sec;
  72:Core/Src/main.c ****     uint8_t fpu_enabled;
  73:Core/Src/main.c ****     uint8_t data_type;
  74:Core/Src/main.c **** } Task5Result;
  75:Core/Src/main.c **** 
  76:Core/Src/main.c **** typedef struct {
  77:Core/Src/main.c ****     uint32_t binary_size;
  78:Core/Src/main.c ****     uint32_t exec_time_ms;
  79:Core/Src/main.c ****     uint64_t checksum;
  80:Core/Src/main.c ****     const char* optimization_level; // String representation
  81:Core/Src/main.c **** } Task6Result;
  82:Core/Src/main.c **** /* USER CODE END PTD */
  83:Core/Src/main.c **** 
  84:Core/Src/main.c **** /* Private define ------------------------------------------------------------*/
  85:Core/Src/main.c **** /* USER CODE BEGIN PD */
  86:Core/Src/main.c **** #define MAX_ITER   100
  87:Core/Src/main.c **** #define SCALE      1000000
  88:Core/Src/main.c **** #define CPU_FREQ   120000000 // STM32F4 at 120MHz
ARM GAS  C:\Users\BANELE~1\AppData\Local\Temp\cc8Zst6e.s 			page 3


  89:Core/Src/main.c **** 
  90:Core/Src/main.c **** #ifndef FPU_BUILD
  91:Core/Src/main.c **** // Will be defined by Makefile targets: -DFPU_BUILD=1 (fpu_on) or 0 (fpu_off)
  92:Core/Src/main.c **** #define FPU_BUILD 0
  93:Core/Src/main.c **** #endif
  94:Core/Src/main.c **** 
  95:Core/Src/main.c **** #ifdef __GNUC__
  96:Core/Src/main.c **** #define PUTCHAR_PROTOTYPE int __io_putchar(int ch)
  97:Core/Src/main.c **** #else
  98:Core/Src/main.c **** #define PUTCHAR_PROTOTYPE int fputc(int ch, FILE *f)
  99:Core/Src/main.c **** #endif
 100:Core/Src/main.c **** 
 101:Core/Src/main.c **** PUTCHAR_PROTOTYPE {
 102:Core/Src/main.c ****     // Stub implementation - replace with UART code if needed
 103:Core/Src/main.c ****     return ch;
 104:Core/Src/main.c **** }
 105:Core/Src/main.c **** 
 106:Core/Src/main.c **** /* USER CODE END PD */
 107:Core/Src/main.c **** 
 108:Core/Src/main.c **** /* Private macro -------------------------------------------------------------*/
 109:Core/Src/main.c **** /* USER CODE BEGIN PM */
 110:Core/Src/main.c **** 
 111:Core/Src/main.c **** /* USER CODE END PM */
 112:Core/Src/main.c **** 
 113:Core/Src/main.c **** /* Private variables ---------------------------------------------------------*/
 114:Core/Src/main.c **** // UART_HandleTypeDef huart2;
 115:Core/Src/main.c **** /* USER CODE BEGIN PV */
 116:Core/Src/main.c **** static const uint16_t max_iter_values[] = {100, 250, 500, 750, 1000};
 117:Core/Src/main.c **** static const uint8_t num_max_iter_tests = 5;
 118:Core/Src/main.c **** 
 119:Core/Src/main.c **** // Performance timing variables
 120:Core/Src/main.c **** static const uint16_t test_sizes[][2] = {
 121:Core/Src/main.c ****     {128, 128}, {160, 160}, {192, 192}, {224, 224}, {256, 256}
 122:Core/Src/main.c **** };
 123:Core/Src/main.c **** 
 124:Core/Src/main.c **** // Per-size results for each kernel
 125:Core/Src/main.c **** volatile Task1Result task1_fixed[5];
 126:Core/Src/main.c **** volatile Task1Result task1_double[5];
 127:Core/Src/main.c **** volatile Task2Result task2_results[5][5]; // [max_iter_index][size_index]
 128:Core/Src/main.c **** volatile Task3Result task3_results[5];
 129:Core/Src/main.c **** 
 130:Core/Src/main.c **** // Handy live variables to watch
 131:Core/Src/main.c **** volatile uint32_t start_time = 0, end_time = 0;
 132:Core/Src/main.c **** volatile uint32_t start_cycles = 0, end_cycles = 0;
 133:Core/Src/main.c **** volatile uint16_t current_width  = 0;
 134:Core/Src/main.c **** volatile uint16_t current_height = 0;
 135:Core/Src/main.c **** volatile uint16_t current_max_iter = 0;
 136:Core/Src/main.c **** volatile uint32_t current_cycles = 0;
 137:Core/Src/main.c **** volatile float current_throughput = 0;
 138:Core/Src/main.c **** 
 139:Core/Src/main.c **** volatile uint64_t checksum_fixed   = 0;
 140:Core/Src/main.c **** volatile uint32_t exec_time_fixed  = 0;
 141:Core/Src/main.c **** 
 142:Core/Src/main.c **** volatile uint64_t checksum_double  = 0;
 143:Core/Src/main.c **** volatile uint32_t exec_time_double = 0;
 144:Core/Src/main.c **** 
 145:Core/Src/main.c **** volatile uint64_t current_checksum = 0;
ARM GAS  C:\Users\BANELE~1\AppData\Local\Temp\cc8Zst6e.s 			page 4


 146:Core/Src/main.c **** volatile uint32_t current_exec_time = 0;
 147:Core/Src/main.c **** 
 148:Core/Src/main.c **** // Progress: 0..9 (5 sizes × 2 kernels)
 149:Core/Src/main.c **** volatile uint32_t progress = 0;
 150:Core/Src/main.c **** 
 151:Core/Src/main.c **** // Task 4 variables
 152:Core/Src/main.c **** static const uint16_t task4_sizes[][2] = {
 153:Core/Src/main.c ****     {320, 240},   // QVGA
 154:Core/Src/main.c ****     {640, 480},   // VGA
 155:Core/Src/main.c ****     {800, 600},   // SVGA
 156:Core/Src/main.c ****     {1024, 768},  // XGA
 157:Core/Src/main.c ****     {1280, 720},  // HD
 158:Core/Src/main.c ****     {1920, 1080}  // Full HD
 159:Core/Src/main.c **** };
 160:Core/Src/main.c **** static const uint8_t num_task4_tests = 6;
 161:Core/Src/main.c **** 
 162:Core/Src/main.c **** volatile Task4Result task4_results[6];
 163:Core/Src/main.c **** volatile uint16_t t4_current_w = 0, t4_current_h = 0;
 164:Core/Src/main.c **** volatile uint32_t t4_exec_ms = 0;
 165:Core/Src/main.c **** volatile uint8_t t4_parts = 0;
 166:Core/Src/main.c **** 
 167:Core/Src/main.c **** // Task 5 variables
 168:Core/Src/main.c **** volatile Task5Result task5_results[5][2];
 169:Core/Src/main.c **** volatile uint8_t task5_done = 0;
 170:Core/Src/main.c **** 
 171:Core/Src/main.c **** volatile uint32_t t5_exec_ms = 0;
 172:Core/Src/main.c **** volatile uint32_t t5_cycles = 0;
 173:Core/Src/main.c **** volatile float    t5_throughput = 0.0f;
 174:Core/Src/main.c **** volatile uint8_t  t5_fpu_enabled = 0;  // build-time status copied during run
 175:Core/Src/main.c **** volatile uint8_t  t5_data_type = 0;    // 0 float, 1 double
 176:Core/Src/main.c **** 
 177:Core/Src/main.c **** volatile Task6Result task6_results;
 178:Core/Src/main.c **** volatile uint8_t task6_done = 0;
 179:Core/Src/main.c **** volatile uint32_t t6_binary_size = 0;
 180:Core/Src/main.c **** volatile uint32_t t6_exec_time = 0;
 181:Core/Src/main.c **** volatile char t6_optimization_level[4] = "Og"; // Default
 182:Core/Src/main.c **** /* USER CODE END PV */
 183:Core/Src/main.c **** 
 184:Core/Src/main.c **** /* Private function prototypes -----------------------------------------------*/
 185:Core/Src/main.c **** void SystemClock_Config(void);
 186:Core/Src/main.c **** static void MX_GPIO_Init(void);
 187:Core/Src/main.c **** /* USER CODE BEGIN PFP */
 188:Core/Src/main.c **** 
 189:Core/Src/main.c **** // Mandelbrot function prototypes
 190:Core/Src/main.c **** uint64_t calculate_mandelbrot_fixed_point_arithmetic(int width, int height, int max_iterations);
 191:Core/Src/main.c **** uint64_t calculate_mandelbrot_double(int width, int height, int max_iterations);
 192:Core/Src/main.c **** void dwt_init(void);
 193:Core/Src/main.c **** void run_task3_benchmark(void);
 194:Core/Src/main.c **** void run_task4_scalability_test_f4(void);
 195:Core/Src/main.c **** 
 196:Core/Src/main.c **** //// TASK -5
 197:Core/Src/main.c **** //void run_task5_fpu_test(void);
 198:Core/Src/main.c **** //uint64_t calculate_mandelbrot_float(int width, int height, int max_iterations);
 199:Core/Src/main.c **** //uint64_t calculate_mandelbrot_double_nofpu(int width, int height, int max_iterations);
 200:Core/Src/main.c **** //uint64_t calculate_mandelbrot_float_nofpu(int width, int height, int max_iterations);
 201:Core/Src/main.c **** //void enable_fpu(void);
 202:Core/Src/main.c **** //void disable_fpu(void);
ARM GAS  C:\Users\BANELE~1\AppData\Local\Temp\cc8Zst6e.s 			page 5


 203:Core/Src/main.c **** //uint8_t is_fpu_enabled(void);
 204:Core/Src/main.c **** //void run_task5_fpu_test(void);
 205:Core/Src/main.c **** //uint64_t calculate_mandelbrot_float_fpu(int width, int height, int max_iterations);
 206:Core/Src/main.c **** //uint64_t calculate_mandelbrot_double_fpu(int width, int height, int max_iterations);
 207:Core/Src/main.c **** //static inline uint32_t cycles_delta(uint32_t start, uint32_t end);
 208:Core/Src/main.c **** uint64_t calculate_mandelbrot_float(int width, int height, int max_iterations);
 209:Core/Src/main.c **** uint64_t calculate_mandelbrot_double(int width, int height, int max_iterations);
 210:Core/Src/main.c **** void enable_fpu(void);
 211:Core/Src/main.c **** void disable_fpu(void);
 212:Core/Src/main.c **** uint8_t is_fpu_enabled(void);
 213:Core/Src/main.c **** void run_task5_fpu_test(void);
 214:Core/Src/main.c **** 
 215:Core/Src/main.c **** static inline uint32_t cycles_delta(uint32_t start, uint32_t end);
 216:Core/Src/main.c **** void run_task6_optimization_test(void);
 217:Core/Src/main.c **** uint32_t get_binary_size(void);
 218:Core/Src/main.c **** 
 219:Core/Src/main.c **** /* USER CODE END PFP */
 220:Core/Src/main.c **** 
 221:Core/Src/main.c **** /* Private user code ---------------------------------------------------------*/
 222:Core/Src/main.c **** /* USER CODE BEGIN 0 */
 223:Core/Src/main.c **** 
 224:Core/Src/main.c **** /* USER CODE END 0 */
 225:Core/Src/main.c **** 
 226:Core/Src/main.c **** /**
 227:Core/Src/main.c ****   * @brief  The application entry point.
 228:Core/Src/main.c ****   * @retval int
 229:Core/Src/main.c ****   */
 230:Core/Src/main.c **** int main(void)
 231:Core/Src/main.c **** {
 232:Core/Src/main.c ****   /* USER CODE BEGIN 1 */
 233:Core/Src/main.c **** 
 234:Core/Src/main.c ****   /* USER CODE END 1 */
 235:Core/Src/main.c **** 
 236:Core/Src/main.c ****   /* MCU Configuration--------------------------------------------------------*/
 237:Core/Src/main.c **** 
 238:Core/Src/main.c ****   /* Reset of all peripherals, Initializes the Flash interface and the Systick. */
 239:Core/Src/main.c ****   HAL_Init();
 240:Core/Src/main.c **** 
 241:Core/Src/main.c ****   /* USER CODE BEGIN Init */
 242:Core/Src/main.c **** 
 243:Core/Src/main.c ****   /* USER CODE END Init */
 244:Core/Src/main.c **** 
 245:Core/Src/main.c ****   /* Configure the system clock */
 246:Core/Src/main.c ****   SystemClock_Config();
 247:Core/Src/main.c **** 
 248:Core/Src/main.c ****   /* USER CODE BEGIN SysInit */
 249:Core/Src/main.c **** 
 250:Core/Src/main.c ****   /* USER CODE END SysInit */
 251:Core/Src/main.c **** 
 252:Core/Src/main.c ****   /* Initialize all configured peripherals */
 253:Core/Src/main.c ****   MX_GPIO_Init();
 254:Core/Src/main.c ****   /* USER CODE BEGIN 2 */
 255:Core/Src/main.c ****   dwt_init(); // calling dwt_init before running task3
 256:Core/Src/main.c ****   /* USER CODE END 2 */
 257:Core/Src/main.c **** 
 258:Core/Src/main.c ****   /* Infinite loop */
 259:Core/Src/main.c ****   /* USER CODE BEGIN WHILE */
ARM GAS  C:\Users\BANELE~1\AppData\Local\Temp\cc8Zst6e.s 			page 6


 260:Core/Src/main.c ****   while (1)
 261:Core/Src/main.c ****   {
 262:Core/Src/main.c ****     /* USER CODE END WHILE */
 263:Core/Src/main.c **** 
 264:Core/Src/main.c ****     /* USER CODE BEGIN 3 */
 265:Core/Src/main.c **** 	  static uint8_t task1_done = 1;
 266:Core/Src/main.c **** 	  static uint8_t task2_done = 1;
 267:Core/Src/main.c **** 	  static uint8_t task3_done = 1;
 268:Core/Src/main.c **** 	  static uint8_t task4_done = 1;
 269:Core/Src/main.c ****     if (!task1_done){
 270:Core/Src/main.c ****       // Visual indicator: Turn on LED0 to signal processing start
 271:Core/Src/main.c ****       HAL_GPIO_WritePin(GPIOB, GPIO_PIN_0, GPIO_PIN_SET);
 272:Core/Src/main.c **** 
 273:Core/Src/main.c ****       // Benchmark and Profile Performance for both implementations
 274:Core/Src/main.c ****       for (int i = 0; i < 5; i++) {
 275:Core/Src/main.c ****         current_width = test_sizes[i][0];
 276:Core/Src/main.c ****         current_height = test_sizes[i][1];
 277:Core/Src/main.c ****         
 278:Core/Src/main.c ****         // Fixed-point arithmetic implementation
 279:Core/Src/main.c ****         start_time = HAL_GetTick();
 280:Core/Src/main.c ****         checksum_fixed = calculate_mandelbrot_fixed_point_arithmetic(current_width, current_height,
 281:Core/Src/main.c ****         end_time = HAL_GetTick();
 282:Core/Src/main.c ****         exec_time_fixed = end_time - start_time;
 283:Core/Src/main.c ****         
 284:Core/Src/main.c ****         task1_fixed[i].width = current_width;
 285:Core/Src/main.c ****         task1_fixed[i].height = current_height;
 286:Core/Src/main.c ****         task1_fixed[i].exec_time_ms = exec_time_fixed;
 287:Core/Src/main.c ****         task1_fixed[i].checksum = checksum_fixed;
 288:Core/Src/main.c ****         
 289:Core/Src/main.c ****         progress++;
 290:Core/Src/main.c ****         
 291:Core/Src/main.c ****         // Double implementation
 292:Core/Src/main.c ****         start_time = HAL_GetTick();
 293:Core/Src/main.c ****         checksum_double = calculate_mandelbrot_double(current_width, current_height, MAX_ITER);
 294:Core/Src/main.c ****         end_time = HAL_GetTick();
 295:Core/Src/main.c ****         exec_time_double = end_time - start_time;
 296:Core/Src/main.c ****         
 297:Core/Src/main.c ****         task1_double[i].width = current_width;
 298:Core/Src/main.c ****         task1_double[i].height = current_height;
 299:Core/Src/main.c ****         task1_double[i].exec_time_ms = exec_time_double;
 300:Core/Src/main.c ****         task1_double[i].checksum = checksum_double;
 301:Core/Src/main.c ****         
 302:Core/Src/main.c **** 
 303:Core/Src/main.c ****         progress++;
 304:Core/Src/main.c ****       }
 305:Core/Src/main.c **** 
 306:Core/Src/main.c ****       // Visual indicator: Turn on LED1 to signal processing completion
 307:Core/Src/main.c ****       HAL_GPIO_WritePin(GPIOB, GPIO_PIN_1, GPIO_PIN_SET);
 308:Core/Src/main.c **** 
 309:Core/Src/main.c ****       // Keep the LEDs ON for 2s
 310:Core/Src/main.c ****       HAL_Delay(2000);
 311:Core/Src/main.c **** 
 312:Core/Src/main.c ****       // Turn OFF LEDs
 313:Core/Src/main.c ****       HAL_GPIO_WritePin(GPIOB, GPIO_PIN_0, GPIO_PIN_RESET);
 314:Core/Src/main.c ****       HAL_GPIO_WritePin(GPIOB, GPIO_PIN_1, GPIO_PIN_RESET);
 315:Core/Src/main.c **** 
 316:Core/Src/main.c ****       task1_done = 1;
ARM GAS  C:\Users\BANELE~1\AppData\Local\Temp\cc8Zst6e.s 			page 7


 317:Core/Src/main.c ****     }
 318:Core/Src/main.c **** 
 319:Core/Src/main.c ****     else if(!task2_done){
 320:Core/Src/main.c ****       // Task 2: Test different MAX_ITER values
 321:Core/Src/main.c ****     HAL_GPIO_WritePin(GPIOB, GPIO_PIN_2, GPIO_PIN_SET); // LED2 for Task 2
 322:Core/Src/main.c ****     
 323:Core/Src/main.c ****     for (int iter_idx = 0; iter_idx < num_max_iter_tests; iter_idx++) {
 324:Core/Src/main.c ****         current_max_iter = max_iter_values[iter_idx];
 325:Core/Src/main.c ****         
 326:Core/Src/main.c ****         for (int size_idx = 0; size_idx < 5; size_idx++) {
 327:Core/Src/main.c ****             current_width = test_sizes[size_idx][0];
 328:Core/Src/main.c ****             current_height = test_sizes[size_idx][1];
 329:Core/Src/main.c ****             
 330:Core/Src/main.c ****             // Fixed-point implementation
 331:Core/Src/main.c ****             start_time = HAL_GetTick();
 332:Core/Src/main.c ****             uint64_t checksum = calculate_mandelbrot_fixed_point_arithmetic(
 333:Core/Src/main.c ****                 current_width, current_height, current_max_iter);
 334:Core/Src/main.c ****             end_time = HAL_GetTick();
 335:Core/Src/main.c ****             
 336:Core/Src/main.c ****             task2_results[iter_idx][size_idx].width = current_width;
 337:Core/Src/main.c ****             task2_results[iter_idx][size_idx].height = current_height;
 338:Core/Src/main.c ****             task2_results[iter_idx][size_idx].max_iter = current_max_iter;
 339:Core/Src/main.c ****             task2_results[iter_idx][size_idx].exec_time_ms = end_time - start_time;
 340:Core/Src/main.c ****             task2_results[iter_idx][size_idx].checksum = checksum;
 341:Core/Src/main.c ****             
 342:Core/Src/main.c ****             progress++;
 343:Core/Src/main.c ****         }
 344:Core/Src/main.c ****     }
 345:Core/Src/main.c ****     
 346:Core/Src/main.c ****     HAL_GPIO_WritePin(GPIOB, GPIO_PIN_3, GPIO_PIN_SET); // LED3 for completion
 347:Core/Src/main.c ****     HAL_Delay(2000);
 348:Core/Src/main.c ****     HAL_GPIO_WritePin(GPIOB, GPIO_PIN_2, GPIO_PIN_RESET);
 349:Core/Src/main.c ****     HAL_GPIO_WritePin(GPIOB, GPIO_PIN_3, GPIO_PIN_RESET);
 350:Core/Src/main.c ****     
 351:Core/Src/main.c ****     task2_done = 1;
 352:Core/Src/main.c ****     }
 353:Core/Src/main.c **** 
 354:Core/Src/main.c ****     else if (!task3_done) {
 355:Core/Src/main.c ****         // Visual indicator: Turn on LED0 to signal Task 3 start
 356:Core/Src/main.c ****         HAL_GPIO_WritePin(GPIOB, GPIO_PIN_0, GPIO_PIN_SET);
 357:Core/Src/main.c ****         
 358:Core/Src/main.c ****         // Run Task 3: Extended execution time measurement
 359:Core/Src/main.c ****         run_task3_benchmark();
 360:Core/Src/main.c ****         
 361:Core/Src/main.c ****         // Visual indicator: Turn on LED1 to signal completion
 362:Core/Src/main.c ****         HAL_GPIO_WritePin(GPIOB, GPIO_PIN_1, GPIO_PIN_SET);
 363:Core/Src/main.c ****         
 364:Core/Src/main.c ****         // Keep LEDs on for 2 seconds
 365:Core/Src/main.c ****         HAL_Delay(2000);
 366:Core/Src/main.c ****         
 367:Core/Src/main.c ****         // Turn off LEDs
 368:Core/Src/main.c ****         HAL_GPIO_WritePin(GPIOB, GPIO_PIN_0 | GPIO_PIN_1, GPIO_PIN_RESET);
 369:Core/Src/main.c ****         
 370:Core/Src/main.c ****         task3_done = 1;
 371:Core/Src/main.c ****     }
 372:Core/Src/main.c ****     else if (!task4_done) {
 373:Core/Src/main.c ****     // Task 4: Scalability Test
ARM GAS  C:\Users\BANELE~1\AppData\Local\Temp\cc8Zst6e.s 			page 8


 374:Core/Src/main.c ****     HAL_GPIO_WritePin(GPIOB, GPIO_PIN_2, GPIO_PIN_SET); // LED2 for Task 4
 375:Core/Src/main.c ****     run_task4_scalability_test_f4();
 376:Core/Src/main.c ****     HAL_GPIO_WritePin(GPIOB, GPIO_PIN_3, GPIO_PIN_SET); // LED3 for completion
 377:Core/Src/main.c ****     HAL_Delay(2000);
 378:Core/Src/main.c ****     HAL_GPIO_WritePin(GPIOB, GPIO_PIN_2 | GPIO_PIN_3, GPIO_PIN_RESET);
 379:Core/Src/main.c ****     task4_done = 1;
 380:Core/Src/main.c ****     }
 381:Core/Src/main.c ****     else if (task5_done) {
 382:Core/Src/main.c ****         // Task 5: FPU Impact Test (STM32F4 only)
 383:Core/Src/main.c ****         HAL_GPIO_WritePin(GPIOB, GPIO_PIN_4, GPIO_PIN_SET);
 384:Core/Src/main.c ****         printf("\r\n=== Task 5: FPU Impact Test ===\r\n");
 385:Core/Src/main.c ****         
 386:Core/Src/main.c ****         run_task5_fpu_test();
 387:Core/Src/main.c ****         
 388:Core/Src/main.c ****         HAL_GPIO_WritePin(GPIOB, GPIO_PIN_5, GPIO_PIN_SET);
 389:Core/Src/main.c ****         printf("=== Task 5 Complete ===\r\n");
 390:Core/Src/main.c ****         HAL_Delay(2000);
 391:Core/Src/main.c ****         HAL_GPIO_WritePin(GPIOB, GPIO_PIN_4 | GPIO_PIN_5, GPIO_PIN_RESET);
 392:Core/Src/main.c ****         task5_done = 1;
 393:Core/Src/main.c ****     }
 394:Core/Src/main.c ****     else if (!task6_done) {
 395:Core/Src/main.c ****         // Task 6: Compiler Optimizations Test
 396:Core/Src/main.c ****         HAL_GPIO_WritePin(GPIOB, GPIO_PIN_4, GPIO_PIN_SET);
 397:Core/Src/main.c ****         
 398:Core/Src/main.c ****         run_task6_optimization_test();
 399:Core/Src/main.c ****         
 400:Core/Src/main.c ****         HAL_GPIO_WritePin(GPIOB, GPIO_PIN_5, GPIO_PIN_SET);
 401:Core/Src/main.c ****         HAL_Delay(2000);
 402:Core/Src/main.c ****         HAL_GPIO_WritePin(GPIOB, GPIO_PIN_4 | GPIO_PIN_5, GPIO_PIN_RESET);
 403:Core/Src/main.c ****         task6_done = 1;
 404:Core/Src/main.c **** }
 405:Core/Src/main.c ****     // heartbeat led to show program is alive
 406:Core/Src/main.c ****     HAL_GPIO_TogglePin(GPIOB, GPIO_PIN_2);
 407:Core/Src/main.c ****     HAL_Delay(1000);
 408:Core/Src/main.c ****   }
 409:Core/Src/main.c **** 
 410:Core/Src/main.c ****   /* USER CODE END 3 */
 411:Core/Src/main.c **** }
 412:Core/Src/main.c **** 
 413:Core/Src/main.c **** /**
 414:Core/Src/main.c ****   * @brief System Clock Configuration
 415:Core/Src/main.c ****   * @retval None
 416:Core/Src/main.c ****   */
 417:Core/Src/main.c **** void SystemClock_Config(void)
 418:Core/Src/main.c **** {
 419:Core/Src/main.c ****   RCC_OscInitTypeDef RCC_OscInitStruct = {0};
 420:Core/Src/main.c ****   RCC_ClkInitTypeDef RCC_ClkInitStruct = {0};
 421:Core/Src/main.c **** 
 422:Core/Src/main.c ****   /** Configure the main internal regulator output voltage
 423:Core/Src/main.c ****   */
 424:Core/Src/main.c ****   __HAL_RCC_PWR_CLK_ENABLE();
 425:Core/Src/main.c ****   __HAL_PWR_VOLTAGESCALING_CONFIG(PWR_REGULATOR_VOLTAGE_SCALE3);
 426:Core/Src/main.c **** 
 427:Core/Src/main.c ****   /** Initializes the RCC Oscillators according to the specified parameters
 428:Core/Src/main.c ****   * in the RCC_OscInitTypeDef structure.
 429:Core/Src/main.c ****   */
 430:Core/Src/main.c ****   RCC_OscInitStruct.OscillatorType = RCC_OSCILLATORTYPE_HSE;
ARM GAS  C:\Users\BANELE~1\AppData\Local\Temp\cc8Zst6e.s 			page 9


 431:Core/Src/main.c ****   RCC_OscInitStruct.HSEState = RCC_HSE_ON;
 432:Core/Src/main.c ****   RCC_OscInitStruct.PLL.PLLState = RCC_PLL_ON;
 433:Core/Src/main.c ****   RCC_OscInitStruct.PLL.PLLSource = RCC_PLLSOURCE_HSE;
 434:Core/Src/main.c ****   RCC_OscInitStruct.PLL.PLLM = 15;
 435:Core/Src/main.c ****   RCC_OscInitStruct.PLL.PLLN = 144;
 436:Core/Src/main.c ****   RCC_OscInitStruct.PLL.PLLP = RCC_PLLP_DIV2;
 437:Core/Src/main.c ****   RCC_OscInitStruct.PLL.PLLQ = 2;
 438:Core/Src/main.c ****   RCC_OscInitStruct.PLL.PLLR = 2;
 439:Core/Src/main.c ****   if (HAL_RCC_OscConfig(&RCC_OscInitStruct) != HAL_OK)
 440:Core/Src/main.c ****   {
 441:Core/Src/main.c ****     Error_Handler();
 442:Core/Src/main.c ****   }
 443:Core/Src/main.c **** 
 444:Core/Src/main.c ****   /** Initializes the CPU, AHB and APB buses clocks
 445:Core/Src/main.c ****   */
 446:Core/Src/main.c ****   RCC_ClkInitStruct.ClockType = RCC_CLOCKTYPE_HCLK|RCC_CLOCKTYPE_SYSCLK
 447:Core/Src/main.c ****                               |RCC_CLOCKTYPE_PCLK1|RCC_CLOCKTYPE_PCLK2;
 448:Core/Src/main.c ****   RCC_ClkInitStruct.SYSCLKSource = RCC_SYSCLKSOURCE_PLLCLK;
 449:Core/Src/main.c ****   RCC_ClkInitStruct.AHBCLKDivider = RCC_SYSCLK_DIV1;
 450:Core/Src/main.c ****   RCC_ClkInitStruct.APB1CLKDivider = RCC_HCLK_DIV4;
 451:Core/Src/main.c ****   RCC_ClkInitStruct.APB2CLKDivider = RCC_HCLK_DIV2;
 452:Core/Src/main.c **** 
 453:Core/Src/main.c ****   if (HAL_RCC_ClockConfig(&RCC_ClkInitStruct, FLASH_LATENCY_3) != HAL_OK)
 454:Core/Src/main.c ****   {
 455:Core/Src/main.c ****     Error_Handler();
 456:Core/Src/main.c ****   }
 457:Core/Src/main.c **** }
 458:Core/Src/main.c **** 
 459:Core/Src/main.c **** /**
 460:Core/Src/main.c ****   * @brief GPIO Initialization Function
 461:Core/Src/main.c ****   * @param None
 462:Core/Src/main.c ****   * @retval None
 463:Core/Src/main.c ****   */
 464:Core/Src/main.c **** static void MX_GPIO_Init(void)
 465:Core/Src/main.c **** {
  28              		.loc 1 465 1 view -0
  29              		.cfi_startproc
  30              		@ args = 0, pretend = 0, frame = 32
  31              		@ frame_needed = 0, uses_anonymous_args = 0
  32 0000 30B5     		push	{r4, r5, lr}
  33              	.LCFI0:
  34              		.cfi_def_cfa_offset 12
  35              		.cfi_offset 4, -12
  36              		.cfi_offset 5, -8
  37              		.cfi_offset 14, -4
  38 0002 89B0     		sub	sp, sp, #36
  39              	.LCFI1:
  40              		.cfi_def_cfa_offset 48
 466:Core/Src/main.c ****   GPIO_InitTypeDef GPIO_InitStruct = {0};
  41              		.loc 1 466 3 view .LVU1
  42              		.loc 1 466 20 is_stmt 0 view .LVU2
  43 0004 0024     		movs	r4, #0
  44 0006 0394     		str	r4, [sp, #12]
  45 0008 0494     		str	r4, [sp, #16]
  46 000a 0594     		str	r4, [sp, #20]
  47 000c 0694     		str	r4, [sp, #24]
  48 000e 0794     		str	r4, [sp, #28]
ARM GAS  C:\Users\BANELE~1\AppData\Local\Temp\cc8Zst6e.s 			page 10


 467:Core/Src/main.c ****   /* USER CODE BEGIN MX_GPIO_Init_1 */
 468:Core/Src/main.c **** 
 469:Core/Src/main.c ****   /* USER CODE END MX_GPIO_Init_1 */
 470:Core/Src/main.c **** 
 471:Core/Src/main.c ****   /* GPIO Ports Clock Enable */
 472:Core/Src/main.c ****   __HAL_RCC_GPIOC_CLK_ENABLE();
  49              		.loc 1 472 3 is_stmt 1 view .LVU3
  50              	.LBB12:
  51              		.loc 1 472 3 view .LVU4
  52 0010 0094     		str	r4, [sp]
  53              		.loc 1 472 3 view .LVU5
  54 0012 184B     		ldr	r3, .L3
  55 0014 1A6B     		ldr	r2, [r3, #48]
  56 0016 42F00402 		orr	r2, r2, #4
  57 001a 1A63     		str	r2, [r3, #48]
  58              		.loc 1 472 3 view .LVU6
  59 001c 1A6B     		ldr	r2, [r3, #48]
  60 001e 02F00402 		and	r2, r2, #4
  61 0022 0092     		str	r2, [sp]
  62              		.loc 1 472 3 view .LVU7
  63 0024 009A     		ldr	r2, [sp]
  64              	.LBE12:
  65              		.loc 1 472 3 view .LVU8
 473:Core/Src/main.c ****   __HAL_RCC_GPIOH_CLK_ENABLE();
  66              		.loc 1 473 3 view .LVU9
  67              	.LBB13:
  68              		.loc 1 473 3 view .LVU10
  69 0026 0194     		str	r4, [sp, #4]
  70              		.loc 1 473 3 view .LVU11
  71 0028 1A6B     		ldr	r2, [r3, #48]
  72 002a 42F08002 		orr	r2, r2, #128
  73 002e 1A63     		str	r2, [r3, #48]
  74              		.loc 1 473 3 view .LVU12
  75 0030 1A6B     		ldr	r2, [r3, #48]
  76 0032 02F08002 		and	r2, r2, #128
  77 0036 0192     		str	r2, [sp, #4]
  78              		.loc 1 473 3 view .LVU13
  79 0038 019A     		ldr	r2, [sp, #4]
  80              	.LBE13:
  81              		.loc 1 473 3 view .LVU14
 474:Core/Src/main.c ****   __HAL_RCC_GPIOB_CLK_ENABLE();
  82              		.loc 1 474 3 view .LVU15
  83              	.LBB14:
  84              		.loc 1 474 3 view .LVU16
  85 003a 0294     		str	r4, [sp, #8]
  86              		.loc 1 474 3 view .LVU17
  87 003c 1A6B     		ldr	r2, [r3, #48]
  88 003e 42F00202 		orr	r2, r2, #2
  89 0042 1A63     		str	r2, [r3, #48]
  90              		.loc 1 474 3 view .LVU18
  91 0044 1B6B     		ldr	r3, [r3, #48]
  92 0046 03F00203 		and	r3, r3, #2
  93 004a 0293     		str	r3, [sp, #8]
  94              		.loc 1 474 3 view .LVU19
  95 004c 029B     		ldr	r3, [sp, #8]
  96              	.LBE14:
  97              		.loc 1 474 3 view .LVU20
ARM GAS  C:\Users\BANELE~1\AppData\Local\Temp\cc8Zst6e.s 			page 11


 475:Core/Src/main.c **** 
 476:Core/Src/main.c ****   /*Configure GPIO pin Output Level */
 477:Core/Src/main.c ****   HAL_GPIO_WritePin(GPIOB, GPIO_PIN_0|GPIO_PIN_1|GPIO_PIN_2|GPIO_PIN_3
  98              		.loc 1 477 3 view .LVU21
  99 004e 0A4D     		ldr	r5, .L3+4
 100 0050 2246     		mov	r2, r4
 101 0052 FF21     		movs	r1, #255
 102 0054 2846     		mov	r0, r5
 103 0056 FFF7FEFF 		bl	HAL_GPIO_WritePin
 104              	.LVL0:
 478:Core/Src/main.c ****                           |GPIO_PIN_4|GPIO_PIN_5|GPIO_PIN_6|GPIO_PIN_7, GPIO_PIN_RESET);
 479:Core/Src/main.c **** 
 480:Core/Src/main.c ****   /*Configure GPIO pins : PB0 PB1 PB2 PB3
 481:Core/Src/main.c ****                            PB4 PB5 PB6 PB7 */
 482:Core/Src/main.c ****   GPIO_InitStruct.Pin = GPIO_PIN_0|GPIO_PIN_1|GPIO_PIN_2|GPIO_PIN_3
 105              		.loc 1 482 3 view .LVU22
 106              		.loc 1 482 23 is_stmt 0 view .LVU23
 107 005a FF23     		movs	r3, #255
 108 005c 0393     		str	r3, [sp, #12]
 483:Core/Src/main.c ****                           |GPIO_PIN_4|GPIO_PIN_5|GPIO_PIN_6|GPIO_PIN_7;
 484:Core/Src/main.c ****   GPIO_InitStruct.Mode = GPIO_MODE_OUTPUT_PP;
 109              		.loc 1 484 3 is_stmt 1 view .LVU24
 110              		.loc 1 484 24 is_stmt 0 view .LVU25
 111 005e 0123     		movs	r3, #1
 112 0060 0493     		str	r3, [sp, #16]
 485:Core/Src/main.c ****   GPIO_InitStruct.Pull = GPIO_NOPULL;
 113              		.loc 1 485 3 is_stmt 1 view .LVU26
 114              		.loc 1 485 24 is_stmt 0 view .LVU27
 115 0062 0594     		str	r4, [sp, #20]
 486:Core/Src/main.c ****   GPIO_InitStruct.Speed = GPIO_SPEED_FREQ_LOW;
 116              		.loc 1 486 3 is_stmt 1 view .LVU28
 117              		.loc 1 486 25 is_stmt 0 view .LVU29
 118 0064 0694     		str	r4, [sp, #24]
 487:Core/Src/main.c ****   HAL_GPIO_Init(GPIOB, &GPIO_InitStruct);
 119              		.loc 1 487 3 is_stmt 1 view .LVU30
 120 0066 03A9     		add	r1, sp, #12
 121 0068 2846     		mov	r0, r5
 122 006a FFF7FEFF 		bl	HAL_GPIO_Init
 123              	.LVL1:
 488:Core/Src/main.c **** 
 489:Core/Src/main.c ****   /* USER CODE BEGIN MX_GPIO_Init_2 */
 490:Core/Src/main.c **** 
 491:Core/Src/main.c ****   /* USER CODE END MX_GPIO_Init_2 */
 492:Core/Src/main.c **** }
 124              		.loc 1 492 1 is_stmt 0 view .LVU31
 125 006e 09B0     		add	sp, sp, #36
 126              	.LCFI2:
 127              		.cfi_def_cfa_offset 12
 128              		@ sp needed
 129 0070 30BD     		pop	{r4, r5, pc}
 130              	.L4:
 131 0072 00BF     		.align	2
 132              	.L3:
 133 0074 00380240 		.word	1073887232
 134 0078 00040240 		.word	1073873920
 135              		.cfi_endproc
 136              	.LFE140:
ARM GAS  C:\Users\BANELE~1\AppData\Local\Temp\cc8Zst6e.s 			page 12


 138              		.section	.text.__io_putchar,"ax",%progbits
 139              		.align	1
 140              		.global	__io_putchar
 141              		.syntax unified
 142              		.thumb
 143              		.thumb_func
 145              	__io_putchar:
 146              	.LVL2:
 147              	.LFB137:
 101:Core/Src/main.c ****     // Stub implementation - replace with UART code if needed
 148              		.loc 1 101 19 is_stmt 1 view -0
 149              		.cfi_startproc
 150              		@ args = 0, pretend = 0, frame = 0
 151              		@ frame_needed = 0, uses_anonymous_args = 0
 152              		@ link register save eliminated.
 103:Core/Src/main.c **** }
 153              		.loc 1 103 5 view .LVU33
 104:Core/Src/main.c **** 
 154              		.loc 1 104 1 is_stmt 0 view .LVU34
 155 0000 7047     		bx	lr
 156              		.cfi_endproc
 157              	.LFE137:
 159              		.global	__aeabi_ldivmod
 160              		.section	.text.calculate_mandelbrot_fixed_point_arithmetic,"ax",%progbits
 161              		.align	1
 162              		.global	calculate_mandelbrot_fixed_point_arithmetic
 163              		.syntax unified
 164              		.thumb
 165              		.thumb_func
 167              	calculate_mandelbrot_fixed_point_arithmetic:
 168              	.LVL3:
 169              	.LFB141:
 493:Core/Src/main.c **** 
 494:Core/Src/main.c **** /* USER CODE BEGIN 4 */
 495:Core/Src/main.c **** // Mandelbrot implementations
 496:Core/Src/main.c **** uint64_t calculate_mandelbrot_fixed_point_arithmetic(int width, int height, int max_iterations){
 170              		.loc 1 496 96 is_stmt 1 view -0
 171              		.cfi_startproc
 172              		@ args = 0, pretend = 0, frame = 48
 173              		@ frame_needed = 0, uses_anonymous_args = 0
 174              		.loc 1 496 96 is_stmt 0 view .LVU36
 175 0000 2DE9F04F 		push	{r4, r5, r6, r7, r8, r9, r10, fp, lr}
 176              	.LCFI3:
 177              		.cfi_def_cfa_offset 36
 178              		.cfi_offset 4, -36
 179              		.cfi_offset 5, -32
 180              		.cfi_offset 6, -28
 181              		.cfi_offset 7, -24
 182              		.cfi_offset 8, -20
 183              		.cfi_offset 9, -16
 184              		.cfi_offset 10, -12
 185              		.cfi_offset 11, -8
 186              		.cfi_offset 14, -4
 187 0004 8DB0     		sub	sp, sp, #52
 188              	.LCFI4:
 189              		.cfi_def_cfa_offset 88
 190 0006 0546     		mov	r5, r0
ARM GAS  C:\Users\BANELE~1\AppData\Local\Temp\cc8Zst6e.s 			page 13


 191 0008 0B91     		str	r1, [sp, #44]
 192 000a 0392     		str	r2, [sp, #12]
 497:Core/Src/main.c ****   uint64_t mandelbrot_sum = 0;
 193              		.loc 1 497 3 is_stmt 1 view .LVU37
 194              	.LVL4:
 498:Core/Src/main.c ****     for (int y = 0; y < height; y++){
 195              		.loc 1 498 5 view .LVU38
 196              	.LBB15:
 197              		.loc 1 498 10 view .LVU39
 198              		.loc 1 498 14 is_stmt 0 view .LVU40
 199 000c 0026     		movs	r6, #0
 200              	.LBE15:
 497:Core/Src/main.c ****   uint64_t mandelbrot_sum = 0;
 201              		.loc 1 497 12 view .LVU41
 202 000e 0696     		str	r6, [sp, #24]
 203 0010 B246     		mov	r10, r6
 204 0012 0796     		str	r6, [sp, #28]
 205              	.LBB22:
 206              		.loc 1 498 5 view .LVU42
 207 0014 8EE0     		b	.L7
 208              	.LVL5:
 209              	.L15:
 210              	.LBB16:
 211              	.LBB17:
 212              	.LBB18:
 499:Core/Src/main.c ****       for(int x = 0; x < width; x++){
 500:Core/Src/main.c ****         int32_t x0 = ((int64_t)x *3500000)/width-2500000;
 501:Core/Src/main.c ****         int32_t y0 = ((int64_t)y *2000000)/height-1000000;
 502:Core/Src/main.c **** 
 503:Core/Src/main.c ****         int32_t xi = 0, yi = 0;
 504:Core/Src/main.c ****         int iterations = 0;
 505:Core/Src/main.c **** 
 506:Core/Src/main.c ****         while(iterations < max_iterations){
 507:Core/Src/main.c ****           int64_t xi2 = ((int64_t)xi * xi) / SCALE;
 508:Core/Src/main.c ****           int64_t yi2 = ((int64_t)yi * yi) / SCALE;
 509:Core/Src/main.c **** 
 510:Core/Src/main.c ****           if(xi2 + yi2 > 4000000) break;
 511:Core/Src/main.c ****           int32_t temp = xi2 - yi2;
 213              		.loc 1 511 11 is_stmt 1 view .LVU43
 214              		.loc 1 511 30 is_stmt 0 view .LVU44
 215 0016 A8EB0008 		sub	r8, r8, r0
 216              	.LVL6:
 512:Core/Src/main.c ****           yi = (2 * (int64_t)xi * yi) / SCALE + y0;
 217              		.loc 1 512 11 is_stmt 1 view .LVU45
 218              		.loc 1 512 33 is_stmt 0 view .LVU46
 219 001a 04FB07F1 		mul	r1, r4, r7
 220 001e 0AFB0B11 		mla	r1, r10, fp, r1
 221 0022 A4FB0A05 		umull	r0, r5, r4, r10
 222              		.loc 1 512 39 view .LVU47
 223 0026 4A4A     		ldr	r2, .L18
 224 0028 0023     		movs	r3, #0
 225 002a 2944     		add	r1, r1, r5
 226 002c FFF7FEFF 		bl	__aeabi_ldivmod
 227              	.LVL7:
 228              		.loc 1 512 47 view .LVU48
 229 0030 059B     		ldr	r3, [sp, #20]
 230 0032 03EB000A 		add	r10, r3, r0
ARM GAS  C:\Users\BANELE~1\AppData\Local\Temp\cc8Zst6e.s 			page 14


 231              	.LVL8:
 513:Core/Src/main.c ****           xi = temp + x0;
 232              		.loc 1 513 11 is_stmt 1 view .LVU49
 233              		.loc 1 513 14 is_stmt 0 view .LVU50
 234 0036 049B     		ldr	r3, [sp, #16]
 235 0038 03EB0804 		add	r4, r3, r8
 236              	.LVL9:
 514:Core/Src/main.c ****           iterations++;
 237              		.loc 1 514 11 is_stmt 1 view .LVU51
 238              		.loc 1 514 21 is_stmt 0 view .LVU52
 239 003c 09F10109 		add	r9, r9, #1
 240              	.LVL10:
 241              	.L8:
 242              		.loc 1 514 21 view .LVU53
 243              	.LBE18:
 506:Core/Src/main.c ****           int64_t xi2 = ((int64_t)xi * xi) / SCALE;
 244              		.loc 1 506 26 is_stmt 1 view .LVU54
 245 0040 039B     		ldr	r3, [sp, #12]
 246 0042 9945     		cmp	r9, r3
 247 0044 25DA     		bge	.L9
 248              	.LBB19:
 507:Core/Src/main.c ****           int64_t yi2 = ((int64_t)yi * yi) / SCALE;
 249              		.loc 1 507 11 view .LVU55
 507:Core/Src/main.c ****           int64_t yi2 = ((int64_t)yi * yi) / SCALE;
 250              		.loc 1 507 26 is_stmt 0 view .LVU56
 251 0046 4FEAE47B 		asr	fp, r4, #31
 507:Core/Src/main.c ****           int64_t yi2 = ((int64_t)yi * yi) / SCALE;
 252              		.loc 1 507 38 view .LVU57
 253 004a 04FB0BF5 		mul	r5, r4, fp
 254 004e A4FB0401 		umull	r0, r1, r4, r4
 507:Core/Src/main.c ****           int64_t yi2 = ((int64_t)yi * yi) / SCALE;
 255              		.loc 1 507 19 view .LVU58
 256 0052 404A     		ldr	r2, .L18+4
 257 0054 0023     		movs	r3, #0
 258 0056 01EB4501 		add	r1, r1, r5, lsl #1
 259 005a FFF7FEFF 		bl	__aeabi_ldivmod
 260              	.LVL11:
 261 005e 8046     		mov	r8, r0
 262 0060 0291     		str	r1, [sp, #8]
 263 0062 0190     		str	r0, [sp, #4]
 264              	.LVL12:
 508:Core/Src/main.c **** 
 265              		.loc 1 508 11 is_stmt 1 view .LVU59
 508:Core/Src/main.c **** 
 266              		.loc 1 508 26 is_stmt 0 view .LVU60
 267 0064 4FEAEA77 		asr	r7, r10, #31
 508:Core/Src/main.c **** 
 268              		.loc 1 508 38 view .LVU61
 269 0068 0AFB07FC 		mul	ip, r10, r7
 270 006c AAFB0A01 		umull	r0, r1, r10, r10
 271              	.LVL13:
 508:Core/Src/main.c **** 
 272              		.loc 1 508 19 view .LVU62
 273 0070 384A     		ldr	r2, .L18+4
 274 0072 0023     		movs	r3, #0
 275 0074 01EB4C01 		add	r1, r1, ip, lsl #1
 276 0078 FFF7FEFF 		bl	__aeabi_ldivmod
ARM GAS  C:\Users\BANELE~1\AppData\Local\Temp\cc8Zst6e.s 			page 15


 277              	.LVL14:
 510:Core/Src/main.c ****           int32_t temp = xi2 - yi2;
 278              		.loc 1 510 11 is_stmt 1 view .LVU63
 510:Core/Src/main.c ****           int32_t temp = xi2 - yi2;
 279              		.loc 1 510 18 is_stmt 0 view .LVU64
 280 007c 4346     		mov	r3, r8
 281 007e 1B18     		adds	r3, r3, r0
 282 0080 029A     		ldr	r2, [sp, #8]
 283 0082 42EB0101 		adc	r1, r2, r1
 284              	.LVL15:
 510:Core/Src/main.c ****           int32_t temp = xi2 - yi2;
 285              		.loc 1 510 13 view .LVU65
 286 0086 344A     		ldr	r2, .L18+8
 287 0088 9A42     		cmp	r2, r3
 288 008a 4FF00003 		mov	r3, #0
 289 008e 8B41     		sbcs	r3, r3, r1
 290 0090 C1DA     		bge	.L15
 291              	.LVL16:
 292              	.L9:
 510:Core/Src/main.c ****           int32_t temp = xi2 - yi2;
 293              		.loc 1 510 13 view .LVU66
 294              	.LBE19:
 515:Core/Src/main.c ****         }
 516:Core/Src/main.c ****         mandelbrot_sum += iterations;
 295              		.loc 1 516 24 view .LVU67
 296 0092 DDF820B0 		ldr	fp, [sp, #32]
 297 0096 099E     		ldr	r6, [sp, #36]
 298              	.LVL17:
 299              		.loc 1 516 24 view .LVU68
 300 0098 0A9D     		ldr	r5, [sp, #40]
 301              		.loc 1 516 9 is_stmt 1 view .LVU69
 302              		.loc 1 516 24 is_stmt 0 view .LVU70
 303 009a 069B     		ldr	r3, [sp, #24]
 304 009c 19EB0302 		adds	r2, r9, r3
 305 00a0 0692     		str	r2, [sp, #24]
 306              	.LVL18:
 307              		.loc 1 516 24 view .LVU71
 308 00a2 079B     		ldr	r3, [sp, #28]
 309 00a4 43EBE973 		adc	r3, r3, r9, asr #31
 310 00a8 0793     		str	r3, [sp, #28]
 311              	.LVL19:
 312              		.loc 1 516 24 view .LVU72
 313              	.LBE17:
 499:Core/Src/main.c ****         int32_t x0 = ((int64_t)x *3500000)/width-2500000;
 314              		.loc 1 499 34 is_stmt 1 discriminator 2 view .LVU73
 315 00aa 0136     		adds	r6, r6, #1
 316              	.LVL20:
 317              	.L12:
 499:Core/Src/main.c ****         int32_t x0 = ((int64_t)x *3500000)/width-2500000;
 318              		.loc 1 499 24 discriminator 1 view .LVU74
 319 00ac AE42     		cmp	r6, r5
 320 00ae 3FDA     		bge	.L16
 321              	.LBB20:
 500:Core/Src/main.c ****         int32_t y0 = ((int64_t)y *2000000)/height-1000000;
 322              		.loc 1 500 9 view .LVU75
 500:Core/Src/main.c ****         int32_t y0 = ((int64_t)y *2000000)/height-1000000;
 323              		.loc 1 500 23 is_stmt 0 view .LVU76
ARM GAS  C:\Users\BANELE~1\AppData\Local\Temp\cc8Zst6e.s 			page 16


 324 00b0 F717     		asrs	r7, r6, #31
 500:Core/Src/main.c ****         int32_t y0 = ((int64_t)y *2000000)/height-1000000;
 325              		.loc 1 500 34 view .LVU77
 326 00b2 2A49     		ldr	r1, .L18+12
 327 00b4 0024     		movs	r4, #0
 328 00b6 A6FB010C 		umull	r0, ip, r6, r1
 500:Core/Src/main.c ****         int32_t y0 = ((int64_t)y *2000000)/height-1000000;
 329              		.loc 1 500 43 view .LVU78
 330 00ba 2A46     		mov	r2, r5
 331 00bc EB17     		asrs	r3, r5, #31
 332 00be 01FB07C1 		mla	r1, r1, r7, ip
 333 00c2 FFF7FEFF 		bl	__aeabi_ldivmod
 334              	.LVL21:
 500:Core/Src/main.c ****         int32_t y0 = ((int64_t)y *2000000)/height-1000000;
 335              		.loc 1 500 49 view .LVU79
 336 00c6 A0F51813 		sub	r3, r0, #2490368
 337 00ca A3F51653 		sub	r3, r3, #9600
 338 00ce 203B     		subs	r3, r3, #32
 339 00d0 0493     		str	r3, [sp, #16]
 340              	.LVL22:
 501:Core/Src/main.c **** 
 341              		.loc 1 501 9 is_stmt 1 view .LVU80
 501:Core/Src/main.c **** 
 342              		.loc 1 501 23 is_stmt 0 view .LVU81
 343 00d2 4FEAEB71 		asr	r1, fp, #31
 501:Core/Src/main.c **** 
 344              		.loc 1 501 34 view .LVU82
 345 00d6 4B01     		lsls	r3, r1, #5
 346              	.LVL23:
 501:Core/Src/main.c **** 
 347              		.loc 1 501 34 view .LVU83
 348 00d8 43EADB63 		orr	r3, r3, fp, lsr #27
 349 00dc 4FEA4B10 		lsl	r0, fp, #5
 350 00e0 B0EB0B00 		subs	r0, r0, fp
 351 00e4 63EB0107 		sbc	r7, r3, r1
 352 00e8 BB01     		lsls	r3, r7, #6
 353 00ea 43EA9063 		orr	r3, r3, r0, lsr #26
 354 00ee 8201     		lsls	r2, r0, #6
 355 00f0 121A     		subs	r2, r2, r0
 356 00f2 63EB0703 		sbc	r3, r3, r7
 357 00f6 DB00     		lsls	r3, r3, #3
 358 00f8 43EA5273 		orr	r3, r3, r2, lsr #29
 359 00fc D200     		lsls	r2, r2, #3
 360 00fe 12EB0B07 		adds	r7, r2, fp
 361 0102 41EB0301 		adc	r1, r1, r3
 362 0106 C901     		lsls	r1, r1, #7
 501:Core/Src/main.c **** 
 363              		.loc 1 501 43 view .LVU84
 364 0108 0B9B     		ldr	r3, [sp, #44]
 365 010a 1A46     		mov	r2, r3
 366 010c DB17     		asrs	r3, r3, #31
 367 010e F801     		lsls	r0, r7, #7
 368 0110 41EA5761 		orr	r1, r1, r7, lsr #25
 369 0114 FFF7FEFF 		bl	__aeabi_ldivmod
 370              	.LVL24:
 501:Core/Src/main.c **** 
 371              		.loc 1 501 50 view .LVU85
ARM GAS  C:\Users\BANELE~1\AppData\Local\Temp\cc8Zst6e.s 			page 17


 372 0118 A0F57422 		sub	r2, r0, #999424
 373 011c A2F51072 		sub	r2, r2, #576
 374              	.LVL25:
 503:Core/Src/main.c ****         int iterations = 0;
 375              		.loc 1 503 9 is_stmt 1 view .LVU86
 504:Core/Src/main.c **** 
 376              		.loc 1 504 9 view .LVU87
 506:Core/Src/main.c ****           int64_t xi2 = ((int64_t)xi * xi) / SCALE;
 377              		.loc 1 506 9 view .LVU88
 504:Core/Src/main.c **** 
 378              		.loc 1 504 13 is_stmt 0 view .LVU89
 379 0120 A146     		mov	r9, r4
 503:Core/Src/main.c ****         int iterations = 0;
 380              		.loc 1 503 25 view .LVU90
 381 0122 A246     		mov	r10, r4
 382 0124 0592     		str	r2, [sp, #20]
 383 0126 CDF820B0 		str	fp, [sp, #32]
 384 012a 0996     		str	r6, [sp, #36]
 385 012c 0A95     		str	r5, [sp, #40]
 506:Core/Src/main.c ****           int64_t xi2 = ((int64_t)xi * xi) / SCALE;
 386              		.loc 1 506 14 view .LVU91
 387 012e 87E7     		b	.L8
 388              	.LVL26:
 389              	.L16:
 506:Core/Src/main.c ****           int64_t xi2 = ((int64_t)xi * xi) / SCALE;
 390              		.loc 1 506 14 view .LVU92
 391              	.LBE20:
 392              	.LBE16:
 498:Core/Src/main.c ****       for(int x = 0; x < width; x++){
 393              		.loc 1 498 34 is_stmt 1 discriminator 2 view .LVU93
 394 0130 0BF1010A 		add	r10, fp, #1
 395              	.LVL27:
 396              	.L7:
 498:Core/Src/main.c ****       for(int x = 0; x < width; x++){
 397              		.loc 1 498 23 discriminator 1 view .LVU94
 398 0134 0B9B     		ldr	r3, [sp, #44]
 399 0136 9A45     		cmp	r10, r3
 400 0138 02DA     		bge	.L17
 401              	.LBB21:
 499:Core/Src/main.c ****         int32_t x0 = ((int64_t)x *3500000)/width-2500000;
 402              		.loc 1 499 15 is_stmt 0 view .LVU95
 403 013a 0026     		movs	r6, #0
 404 013c D346     		mov	fp, r10
 405 013e B5E7     		b	.L12
 406              	.L17:
 499:Core/Src/main.c ****         int32_t x0 = ((int64_t)x *3500000)/width-2500000;
 407              		.loc 1 499 15 view .LVU96
 408              	.LBE21:
 409              	.LBE22:
 517:Core/Src/main.c ****       }
 518:Core/Src/main.c ****     }
 519:Core/Src/main.c ****     return mandelbrot_sum;
 520:Core/Src/main.c **** }
 410              		.loc 1 520 1 view .LVU97
 411 0140 DDF81CB0 		ldr	fp, [sp, #28]
 519:Core/Src/main.c **** }
 412              		.loc 1 519 5 is_stmt 1 view .LVU98
ARM GAS  C:\Users\BANELE~1\AppData\Local\Temp\cc8Zst6e.s 			page 18


 413              		.loc 1 520 1 is_stmt 0 view .LVU99
 414 0144 0698     		ldr	r0, [sp, #24]
 415 0146 5946     		mov	r1, fp
 416 0148 0DB0     		add	sp, sp, #52
 417              	.LCFI5:
 418              		.cfi_def_cfa_offset 36
 419              		@ sp needed
 420 014a BDE8F08F 		pop	{r4, r5, r6, r7, r8, r9, r10, fp, pc}
 421              	.LVL28:
 422              	.L19:
 423              		.loc 1 520 1 view .LVU100
 424 014e 00BF     		.align	2
 425              	.L18:
 426 0150 20A10700 		.word	500000
 427 0154 40420F00 		.word	1000000
 428 0158 00093D00 		.word	4000000
 429 015c E0673500 		.word	3500000
 430              		.cfi_endproc
 431              	.LFE141:
 433              		.global	__aeabi_i2d
 434              		.global	__aeabi_ddiv
 435              		.global	__aeabi_dmul
 436              		.global	__aeabi_dsub
 437              		.global	__aeabi_dadd
 438              		.global	__aeabi_dcmple
 439              		.section	.text.calculate_mandelbrot_double,"ax",%progbits
 440              		.align	1
 441              		.global	calculate_mandelbrot_double
 442              		.syntax unified
 443              		.thumb
 444              		.thumb_func
 446              	calculate_mandelbrot_double:
 447              	.LVL29:
 448              	.LFB142:
 521:Core/Src/main.c **** 
 522:Core/Src/main.c **** uint64_t calculate_mandelbrot_double(int width, int height, int max_iterations){
 449              		.loc 1 522 80 is_stmt 1 view -0
 450              		.cfi_startproc
 451              		@ args = 0, pretend = 0, frame = 56
 452              		@ frame_needed = 0, uses_anonymous_args = 0
 453              		.loc 1 522 80 is_stmt 0 view .LVU102
 454 0000 2DE9F04F 		push	{r4, r5, r6, r7, r8, r9, r10, fp, lr}
 455              	.LCFI6:
 456              		.cfi_def_cfa_offset 36
 457              		.cfi_offset 4, -36
 458              		.cfi_offset 5, -32
 459              		.cfi_offset 6, -28
 460              		.cfi_offset 7, -24
 461              		.cfi_offset 8, -20
 462              		.cfi_offset 9, -16
 463              		.cfi_offset 10, -12
 464              		.cfi_offset 11, -8
 465              		.cfi_offset 14, -4
 466 0004 8FB0     		sub	sp, sp, #60
 467              	.LCFI7:
 468              		.cfi_def_cfa_offset 96
 469 0006 0790     		str	r0, [sp, #28]
ARM GAS  C:\Users\BANELE~1\AppData\Local\Temp\cc8Zst6e.s 			page 19


 470 0008 0C91     		str	r1, [sp, #48]
 471 000a 0D92     		str	r2, [sp, #52]
 523:Core/Src/main.c ****     uint64_t mandelbrot_sum = 0;
 472              		.loc 1 523 5 is_stmt 1 view .LVU103
 473              	.LVL30:
 524:Core/Src/main.c ****     for (int y = 0; y < height; y++){
 474              		.loc 1 524 5 view .LVU104
 475              	.LBB23:
 476              		.loc 1 524 10 view .LVU105
 477              		.loc 1 524 14 is_stmt 0 view .LVU106
 478 000c 4FF00008 		mov	r8, #0
 479              	.LBE23:
 523:Core/Src/main.c ****     uint64_t mandelbrot_sum = 0;
 480              		.loc 1 523 14 view .LVU107
 481 0010 CDF82080 		str	r8, [sp, #32]
 482 0014 CDF82480 		str	r8, [sp, #36]
 483              	.LBB29:
 484              		.loc 1 524 5 view .LVU108
 485 0018 8DE0     		b	.L21
 486              	.LVL31:
 487              	.L24:
 488              	.LBB24:
 489              	.LBB25:
 490              	.LBB26:
 525:Core/Src/main.c ****       for(int x = 0; x < width; x++){
 526:Core/Src/main.c ****         double x0 = ((double)x/width)*3.5-2.5;
 527:Core/Src/main.c ****         double y0 = ((double)y/height)*2.0-1.0;
 528:Core/Src/main.c ****         double xi = 0.0, yi = 0.0;
 529:Core/Src/main.c ****         int iterations = 0;
 530:Core/Src/main.c **** 
 531:Core/Src/main.c ****         while(iterations < max_iterations && (xi * xi + yi * yi) <=4.0){
 532:Core/Src/main.c ****           double temp = (xi * xi- yi * yi);
 491              		.loc 1 532 11 is_stmt 1 view .LVU109
 492              		.loc 1 532 18 is_stmt 0 view .LVU110
 493 001a 5246     		mov	r2, r10
 494 001c 5B46     		mov	r3, fp
 495 001e DDE90001 		ldrd	r0, [sp]
 496 0022 FFF7FEFF 		bl	__aeabi_dsub
 497              	.LVL32:
 498 0026 8246     		mov	r10, r0
 499 0028 8B46     		mov	fp, r1
 500              	.LVL33:
 533:Core/Src/main.c ****           yi = 2.0* xi * yi + y0;
 501              		.loc 1 533 11 is_stmt 1 view .LVU111
 502              		.loc 1 533 19 is_stmt 0 view .LVU112
 503 002a 2246     		mov	r2, r4
 504 002c 2B46     		mov	r3, r5
 505 002e 2046     		mov	r0, r4
 506 0030 2946     		mov	r1, r5
 507 0032 FFF7FEFF 		bl	__aeabi_dadd
 508              	.LVL34:
 509              		.loc 1 533 24 view .LVU113
 510 0036 3246     		mov	r2, r6
 511 0038 3B46     		mov	r3, r7
 512 003a FFF7FEFF 		bl	__aeabi_dmul
 513              	.LVL35:
 514              		.loc 1 533 14 view .LVU114
ARM GAS  C:\Users\BANELE~1\AppData\Local\Temp\cc8Zst6e.s 			page 20


 515 003e DDE90423 		ldrd	r2, [sp, #16]
 516 0042 FFF7FEFF 		bl	__aeabi_dadd
 517              	.LVL36:
 518 0046 0646     		mov	r6, r0
 519              	.LVL37:
 520              		.loc 1 533 14 view .LVU115
 521 0048 0F46     		mov	r7, r1
 522              	.LVL38:
 534:Core/Src/main.c ****           xi = temp + x0;
 523              		.loc 1 534 11 is_stmt 1 view .LVU116
 524              		.loc 1 534 14 is_stmt 0 view .LVU117
 525 004a 5246     		mov	r2, r10
 526 004c 5B46     		mov	r3, fp
 527 004e DDE90201 		ldrd	r0, [sp, #8]
 528 0052 FFF7FEFF 		bl	__aeabi_dadd
 529              	.LVL39:
 530 0056 0446     		mov	r4, r0
 531              	.LVL40:
 532              		.loc 1 534 14 view .LVU118
 533 0058 0D46     		mov	r5, r1
 534              	.LVL41:
 535:Core/Src/main.c ****           iterations++;
 535              		.loc 1 535 11 is_stmt 1 view .LVU119
 536              		.loc 1 535 21 is_stmt 0 view .LVU120
 537 005a 08F10108 		add	r8, r8, #1
 538              	.LVL42:
 539              	.L22:
 540              		.loc 1 535 21 view .LVU121
 541              	.LBE26:
 531:Core/Src/main.c ****           double temp = (xi * xi- yi * yi);
 542              		.loc 1 531 43 is_stmt 1 view .LVU122
 543 005e C845     		cmp	r8, r9
 544 0060 1BDA     		bge	.L23
 531:Core/Src/main.c ****           double temp = (xi * xi- yi * yi);
 545              		.loc 1 531 50 is_stmt 0 discriminator 1 view .LVU123
 546 0062 2246     		mov	r2, r4
 547 0064 2B46     		mov	r3, r5
 548 0066 2046     		mov	r0, r4
 549 0068 2946     		mov	r1, r5
 550 006a FFF7FEFF 		bl	__aeabi_dmul
 551              	.LVL43:
 552 006e CDE90001 		strd	r0, [sp]
 531:Core/Src/main.c ****           double temp = (xi * xi- yi * yi);
 553              		.loc 1 531 60 discriminator 1 view .LVU124
 554 0072 3246     		mov	r2, r6
 555 0074 3B46     		mov	r3, r7
 556 0076 3046     		mov	r0, r6
 557 0078 3946     		mov	r1, r7
 558 007a FFF7FEFF 		bl	__aeabi_dmul
 559              	.LVL44:
 560 007e 8246     		mov	r10, r0
 561 0080 8B46     		mov	fp, r1
 531:Core/Src/main.c ****           double temp = (xi * xi- yi * yi);
 562              		.loc 1 531 55 discriminator 1 view .LVU125
 563 0082 0246     		mov	r2, r0
 564 0084 0B46     		mov	r3, r1
 565 0086 DDE90001 		ldrd	r0, [sp]
ARM GAS  C:\Users\BANELE~1\AppData\Local\Temp\cc8Zst6e.s 			page 21


 566 008a FFF7FEFF 		bl	__aeabi_dadd
 567              	.LVL45:
 531:Core/Src/main.c ****           double temp = (xi * xi- yi * yi);
 568              		.loc 1 531 43 discriminator 1 view .LVU126
 569 008e 0022     		movs	r2, #0
 570 0090 314B     		ldr	r3, .L31
 571 0092 FFF7FEFF 		bl	__aeabi_dcmple
 572              	.LVL46:
 573 0096 0028     		cmp	r0, #0
 574 0098 BFD1     		bne	.L24
 575              	.L23:
 536:Core/Src/main.c ****         }
 537:Core/Src/main.c ****         mandelbrot_sum += iterations;
 576              		.loc 1 537 24 view .LVU127
 577 009a DDF82890 		ldr	r9, [sp, #40]
 578              		.loc 1 537 9 is_stmt 1 view .LVU128
 579              		.loc 1 537 24 is_stmt 0 view .LVU129
 580 009e 089B     		ldr	r3, [sp, #32]
 581 00a0 18EB0302 		adds	r2, r8, r3
 582 00a4 0892     		str	r2, [sp, #32]
 583              	.LVL47:
 584              		.loc 1 537 24 view .LVU130
 585 00a6 099B     		ldr	r3, [sp, #36]
 586 00a8 43EBE873 		adc	r3, r3, r8, asr #31
 587 00ac 0993     		str	r3, [sp, #36]
 588              	.LVL48:
 589              		.loc 1 537 24 view .LVU131
 590              	.LBE25:
 525:Core/Src/main.c ****         double x0 = ((double)x/width)*3.5-2.5;
 591              		.loc 1 525 34 is_stmt 1 discriminator 2 view .LVU132
 592 00ae 09F10109 		add	r9, r9, #1
 593              	.LVL49:
 594              	.L26:
 525:Core/Src/main.c ****         double x0 = ((double)x/width)*3.5-2.5;
 595              		.loc 1 525 24 discriminator 1 view .LVU133
 596 00b2 079B     		ldr	r3, [sp, #28]
 597 00b4 9945     		cmp	r9, r3
 598 00b6 3ADA     		bge	.L29
 599              	.LBB27:
 526:Core/Src/main.c ****         double y0 = ((double)y/height)*2.0-1.0;
 600              		.loc 1 526 9 view .LVU134
 526:Core/Src/main.c ****         double y0 = ((double)y/height)*2.0-1.0;
 601              		.loc 1 526 22 is_stmt 0 view .LVU135
 602 00b8 4846     		mov	r0, r9
 603 00ba FFF7FEFF 		bl	__aeabi_i2d
 604              	.LVL50:
 605 00be 0446     		mov	r4, r0
 606 00c0 0D46     		mov	r5, r1
 526:Core/Src/main.c ****         double y0 = ((double)y/height)*2.0-1.0;
 607              		.loc 1 526 31 view .LVU136
 608 00c2 0798     		ldr	r0, [sp, #28]
 609 00c4 FFF7FEFF 		bl	__aeabi_i2d
 610              	.LVL51:
 611 00c8 0246     		mov	r2, r0
 612 00ca 0B46     		mov	r3, r1
 613 00cc 2046     		mov	r0, r4
 614 00ce 2946     		mov	r1, r5
ARM GAS  C:\Users\BANELE~1\AppData\Local\Temp\cc8Zst6e.s 			page 22


 615 00d0 FFF7FEFF 		bl	__aeabi_ddiv
 616              	.LVL52:
 526:Core/Src/main.c ****         double y0 = ((double)y/height)*2.0-1.0;
 617              		.loc 1 526 38 view .LVU137
 618 00d4 0022     		movs	r2, #0
 619 00d6 214B     		ldr	r3, .L31+4
 620 00d8 FFF7FEFF 		bl	__aeabi_dmul
 621              	.LVL53:
 526:Core/Src/main.c ****         double y0 = ((double)y/height)*2.0-1.0;
 622              		.loc 1 526 16 view .LVU138
 623 00dc 0022     		movs	r2, #0
 624 00de 204B     		ldr	r3, .L31+8
 625 00e0 FFF7FEFF 		bl	__aeabi_dsub
 626              	.LVL54:
 627 00e4 CDE90201 		strd	r0, [sp, #8]
 628              	.LVL55:
 527:Core/Src/main.c ****         double xi = 0.0, yi = 0.0;
 629              		.loc 1 527 9 is_stmt 1 view .LVU139
 527:Core/Src/main.c ****         double xi = 0.0, yi = 0.0;
 630              		.loc 1 527 22 is_stmt 0 view .LVU140
 631 00e8 0B98     		ldr	r0, [sp, #44]
 632              	.LVL56:
 527:Core/Src/main.c ****         double xi = 0.0, yi = 0.0;
 633              		.loc 1 527 22 view .LVU141
 634 00ea FFF7FEFF 		bl	__aeabi_i2d
 635              	.LVL57:
 636 00ee 0446     		mov	r4, r0
 637 00f0 0D46     		mov	r5, r1
 527:Core/Src/main.c ****         double xi = 0.0, yi = 0.0;
 638              		.loc 1 527 31 view .LVU142
 639 00f2 0C98     		ldr	r0, [sp, #48]
 640 00f4 FFF7FEFF 		bl	__aeabi_i2d
 641              	.LVL58:
 642 00f8 0246     		mov	r2, r0
 643 00fa 0B46     		mov	r3, r1
 644 00fc 2046     		mov	r0, r4
 645 00fe 2946     		mov	r1, r5
 646 0100 FFF7FEFF 		bl	__aeabi_ddiv
 647              	.LVL59:
 648 0104 0246     		mov	r2, r0
 649 0106 0B46     		mov	r3, r1
 527:Core/Src/main.c ****         double xi = 0.0, yi = 0.0;
 650              		.loc 1 527 39 view .LVU143
 651 0108 FFF7FEFF 		bl	__aeabi_dadd
 652              	.LVL60:
 527:Core/Src/main.c ****         double xi = 0.0, yi = 0.0;
 653              		.loc 1 527 16 view .LVU144
 654 010c 0022     		movs	r2, #0
 655 010e 154B     		ldr	r3, .L31+12
 656 0110 FFF7FEFF 		bl	__aeabi_dsub
 657              	.LVL61:
 658 0114 CDE90401 		strd	r0, [sp, #16]
 659              	.LVL62:
 528:Core/Src/main.c ****         int iterations = 0;
 660              		.loc 1 528 9 is_stmt 1 view .LVU145
 529:Core/Src/main.c **** 
 661              		.loc 1 529 9 view .LVU146
ARM GAS  C:\Users\BANELE~1\AppData\Local\Temp\cc8Zst6e.s 			page 23


 531:Core/Src/main.c ****           double temp = (xi * xi- yi * yi);
 662              		.loc 1 531 9 view .LVU147
 529:Core/Src/main.c **** 
 663              		.loc 1 529 13 is_stmt 0 view .LVU148
 664 0118 4FF00008 		mov	r8, #0
 528:Core/Src/main.c ****         int iterations = 0;
 665              		.loc 1 528 26 view .LVU149
 666 011c 0026     		movs	r6, #0
 667 011e 0027     		movs	r7, #0
 528:Core/Src/main.c ****         int iterations = 0;
 668              		.loc 1 528 16 view .LVU150
 669 0120 3446     		mov	r4, r6
 670 0122 3D46     		mov	r5, r7
 671 0124 CDF82890 		str	r9, [sp, #40]
 672 0128 DDF83490 		ldr	r9, [sp, #52]
 673              	.LVL63:
 531:Core/Src/main.c ****           double temp = (xi * xi- yi * yi);
 674              		.loc 1 531 14 view .LVU151
 675 012c 97E7     		b	.L22
 676              	.LVL64:
 677              	.L29:
 531:Core/Src/main.c ****           double temp = (xi * xi- yi * yi);
 678              		.loc 1 531 14 view .LVU152
 679              	.LBE27:
 680              	.LBE24:
 524:Core/Src/main.c ****       for(int x = 0; x < width; x++){
 681              		.loc 1 524 34 discriminator 2 view .LVU153
 682 012e DDF82C80 		ldr	r8, [sp, #44]
 524:Core/Src/main.c ****       for(int x = 0; x < width; x++){
 683              		.loc 1 524 34 is_stmt 1 discriminator 2 view .LVU154
 684 0132 08F10108 		add	r8, r8, #1
 685              	.LVL65:
 686              	.L21:
 524:Core/Src/main.c ****       for(int x = 0; x < width; x++){
 687              		.loc 1 524 23 discriminator 1 view .LVU155
 688 0136 0C9B     		ldr	r3, [sp, #48]
 689 0138 9845     		cmp	r8, r3
 690 013a 05DA     		bge	.L30
 691              	.LBB28:
 525:Core/Src/main.c ****         double x0 = ((double)x/width)*3.5-2.5;
 692              		.loc 1 525 15 is_stmt 0 view .LVU156
 693 013c 4FF0000A 		mov	r10, #0
 694 0140 CDF82C80 		str	r8, [sp, #44]
 695 0144 D146     		mov	r9, r10
 696 0146 B4E7     		b	.L26
 697              	.L30:
 525:Core/Src/main.c ****         double x0 = ((double)x/width)*3.5-2.5;
 698              		.loc 1 525 15 view .LVU157
 699              	.LBE28:
 700              	.LBE29:
 538:Core/Src/main.c ****       }
 539:Core/Src/main.c ****     }
 540:Core/Src/main.c ****     return mandelbrot_sum;
 541:Core/Src/main.c **** }
 701              		.loc 1 541 1 view .LVU158
 702 0148 DDF82490 		ldr	r9, [sp, #36]
 540:Core/Src/main.c **** }
ARM GAS  C:\Users\BANELE~1\AppData\Local\Temp\cc8Zst6e.s 			page 24


 703              		.loc 1 540 5 is_stmt 1 view .LVU159
 704              		.loc 1 541 1 is_stmt 0 view .LVU160
 705 014c 0898     		ldr	r0, [sp, #32]
 706 014e 4946     		mov	r1, r9
 707 0150 0FB0     		add	sp, sp, #60
 708              	.LCFI8:
 709              		.cfi_def_cfa_offset 36
 710              		@ sp needed
 711 0152 BDE8F08F 		pop	{r4, r5, r6, r7, r8, r9, r10, fp, pc}
 712              	.LVL66:
 713              	.L32:
 714              		.loc 1 541 1 view .LVU161
 715 0156 00BF     		.align	2
 716              	.L31:
 717 0158 00001040 		.word	1074790400
 718 015c 00000C40 		.word	1074528256
 719 0160 00000440 		.word	1074003968
 720 0164 0000F03F 		.word	1072693248
 721              		.cfi_endproc
 722              	.LFE142:
 724              		.section	.text.dwt_init,"ax",%progbits
 725              		.align	1
 726              		.global	dwt_init
 727              		.syntax unified
 728              		.thumb
 729              		.thumb_func
 731              	dwt_init:
 732              	.LFB143:
 542:Core/Src/main.c **** /**
 543:Core/Src/main.c ****  * @brief Initialize DWT cycle counter for accurate timing
 544:Core/Src/main.c ****  */
 545:Core/Src/main.c **** void dwt_init(void)
 546:Core/Src/main.c **** {
 733              		.loc 1 546 1 is_stmt 1 view -0
 734              		.cfi_startproc
 735              		@ args = 0, pretend = 0, frame = 0
 736              		@ frame_needed = 0, uses_anonymous_args = 0
 737              		@ link register save eliminated.
 547:Core/Src/main.c ****     /* Enable trace and debug blocks (needed for DWT) */
 548:Core/Src/main.c ****     CoreDebug->DEMCR |= CoreDebug_DEMCR_TRCENA_Msk;
 738              		.loc 1 548 5 view .LVU163
 739              		.loc 1 548 14 is_stmt 0 view .LVU164
 740 0000 074A     		ldr	r2, .L34
 741 0002 D2F8FC30 		ldr	r3, [r2, #252]
 742              		.loc 1 548 22 view .LVU165
 743 0006 43F08073 		orr	r3, r3, #16777216
 744 000a C2F8FC30 		str	r3, [r2, #252]
 549:Core/Src/main.c **** 
 550:Core/Src/main.c ****     /* Reset and enable the cycle counter */
 551:Core/Src/main.c ****     DWT->CYCCNT = 0;
 745              		.loc 1 551 5 is_stmt 1 view .LVU166
 746              		.loc 1 551 17 is_stmt 0 view .LVU167
 747 000e 054B     		ldr	r3, .L34+4
 748 0010 0022     		movs	r2, #0
 749 0012 5A60     		str	r2, [r3, #4]
 552:Core/Src/main.c ****     DWT->CTRL  |= DWT_CTRL_CYCCNTENA_Msk;
 750              		.loc 1 552 5 is_stmt 1 view .LVU168
ARM GAS  C:\Users\BANELE~1\AppData\Local\Temp\cc8Zst6e.s 			page 25


 751              		.loc 1 552 8 is_stmt 0 view .LVU169
 752 0014 1A68     		ldr	r2, [r3]
 753              		.loc 1 552 16 view .LVU170
 754 0016 42F00102 		orr	r2, r2, #1
 755 001a 1A60     		str	r2, [r3]
 553:Core/Src/main.c **** }
 756              		.loc 1 553 1 view .LVU171
 757 001c 7047     		bx	lr
 758              	.L35:
 759 001e 00BF     		.align	2
 760              	.L34:
 761 0020 00ED00E0 		.word	-536810240
 762 0024 001000E0 		.word	-536866816
 763              		.cfi_endproc
 764              	.LFE143:
 766              		.section	.text.run_task3_benchmark,"ax",%progbits
 767              		.align	1
 768              		.global	run_task3_benchmark
 769              		.syntax unified
 770              		.thumb
 771              		.thumb_func
 773              	run_task3_benchmark:
 774              	.LFB144:
 554:Core/Src/main.c **** 
 555:Core/Src/main.c **** /**
 556:Core/Src/main.c ****  * @brief Run Task 3 benchmark with extended timing measurements
 557:Core/Src/main.c ****  */
 558:Core/Src/main.c **** void run_task3_benchmark(void)
 559:Core/Src/main.c **** {
 775              		.loc 1 559 1 is_stmt 1 view -0
 776              		.cfi_startproc
 777              		@ args = 0, pretend = 0, frame = 32
 778              		@ frame_needed = 0, uses_anonymous_args = 0
 779 0000 2DE9F04F 		push	{r4, r5, r6, r7, r8, r9, r10, fp, lr}
 780              	.LCFI9:
 781              		.cfi_def_cfa_offset 36
 782              		.cfi_offset 4, -36
 783              		.cfi_offset 5, -32
 784              		.cfi_offset 6, -28
 785              		.cfi_offset 7, -24
 786              		.cfi_offset 8, -20
 787              		.cfi_offset 9, -16
 788              		.cfi_offset 10, -12
 789              		.cfi_offset 11, -8
 790              		.cfi_offset 14, -4
 791 0004 2DED028B 		vpush.64	{d8}
 792              	.LCFI10:
 793              		.cfi_def_cfa_offset 44
 794              		.cfi_offset 80, -44
 795              		.cfi_offset 81, -40
 796 0008 89B0     		sub	sp, sp, #36
 797              	.LCFI11:
 798              		.cfi_def_cfa_offset 80
 560:Core/Src/main.c ****     progress = 0;
 799              		.loc 1 560 5 view .LVU173
 800              		.loc 1 560 14 is_stmt 0 view .LVU174
 801 000a 0024     		movs	r4, #0
ARM GAS  C:\Users\BANELE~1\AppData\Local\Temp\cc8Zst6e.s 			page 26


 802 000c 404B     		ldr	r3, .L43
 803 000e 1C60     		str	r4, [r3]
 561:Core/Src/main.c ****     
 562:Core/Src/main.c ****     // Test all 5 image sizes from Practical 1B
 563:Core/Src/main.c ****     for (unsigned i = 0; i < (sizeof(test_sizes) / sizeof(test_sizes[0])); i++)
 804              		.loc 1 563 5 is_stmt 1 view .LVU175
 805              	.LBB30:
 806              		.loc 1 563 10 view .LVU176
 807              	.LVL67:
 808              		.loc 1 563 5 is_stmt 0 view .LVU177
 809 0010 28E0     		b	.L37
 810              	.LVL68:
 811              	.L40:
 812              	.LBB31:
 564:Core/Src/main.c ****     {
 565:Core/Src/main.c ****         current_max_iter = MAX_ITER;
 566:Core/Src/main.c ****         uint16_t width = test_sizes[i][0];
 567:Core/Src/main.c ****         uint16_t height = test_sizes[i][1];
 568:Core/Src/main.c ****         uint32_t total_pixels = width * height;
 569:Core/Src/main.c ****         
 570:Core/Src/main.c ****         // Update current test info for debugger viewing
 571:Core/Src/main.c ****         current_width = width;
 572:Core/Src/main.c ****         current_height = height;
 573:Core/Src/main.c ****         
 574:Core/Src/main.c ****         // Progress indication
 575:Core/Src/main.c ****         HAL_GPIO_TogglePin(GPIOB, GPIO_PIN_4);
 576:Core/Src/main.c ****         
 577:Core/Src/main.c ****         // Reset and start measurements
 578:Core/Src/main.c ****         DWT->CYCCNT = 0;  // Reset cycle counter
 579:Core/Src/main.c ****         start_cycles = DWT->CYCCNT;
 580:Core/Src/main.c ****         start_time = HAL_GetTick();
 581:Core/Src/main.c ****         
 582:Core/Src/main.c ****         // Execute Mandelbrot calculation
 583:Core/Src/main.c ****         uint64_t checksum = calculate_mandelbrot_fixed_point_arithmetic(width, height, MAX_ITER);
 584:Core/Src/main.c ****         
 585:Core/Src/main.c ****         // Stop measurements
 586:Core/Src/main.c ****         end_time = HAL_GetTick();
 587:Core/Src/main.c ****         end_cycles = DWT->CYCCNT;
 588:Core/Src/main.c ****         
 589:Core/Src/main.c ****         // Calculate metrics
 590:Core/Src/main.c ****         uint32_t exec_time_ms = end_time - start_time;
 591:Core/Src/main.c ****         uint32_t cpu_cycles = end_cycles - start_cycles;
 592:Core/Src/main.c ****         
 593:Core/Src/main.c ****         // Calculate throughput (pixels per second)
 594:Core/Src/main.c ****         float throughput = 0.0f;
 813              		.loc 1 594 15 view .LVU178
 814 0012 DFED407A 		vldr.32	s15, .L43+4
 815              	.LVL69:
 816              	.L38:
 595:Core/Src/main.c ****         if (exec_time_ms > 0) {
 596:Core/Src/main.c ****             // Convert ms to seconds and calculate pixels/sec
 597:Core/Src/main.c ****             throughput = (float)total_pixels / ((float)exec_time_ms / 1000.0f);
 598:Core/Src/main.c ****         }
 599:Core/Src/main.c ****         
 600:Core/Src/main.c ****         // Store results
 601:Core/Src/main.c ****         task3_results[i] = (Task3Result){
 817              		.loc 1 601 9 is_stmt 1 view .LVU179
ARM GAS  C:\Users\BANELE~1\AppData\Local\Temp\cc8Zst6e.s 			page 27


 818              		.loc 1 601 26 is_stmt 0 view .LVU180
 819 0016 ADF80080 		strh	r8, [sp]	@ movhi
 820 001a ADF80270 		strh	r7, [sp, #2]	@ movhi
 821 001e 0195     		str	r5, [sp, #4]
 822 0020 6427     		movs	r7, #100
 823              	.LVL70:
 824              		.loc 1 601 26 view .LVU181
 825 0022 ADF80870 		strh	r7, [sp, #8]	@ movhi
 826 0026 8DED048B 		vstr.64	d8, [sp, #16]	@ int
 827 002a 0696     		str	r6, [sp, #24]
 828 002c CDED077A 		vstr.32	s15, [sp, #28]
 829 0030 394B     		ldr	r3, .L43+8
 830 0032 03EB441C 		add	ip, r3, r4, lsl #5
 831 0036 EE46     		mov	lr, sp
 832 0038 BEE80F00 		ldmia	lr!, {r0, r1, r2, r3}
 833 003c ACE80F00 		stmia	ip!, {r0, r1, r2, r3}
 834 0040 9EE80F00 		ldm	lr, {r0, r1, r2, r3}
 835 0044 8CE80F00 		stm	ip, {r0, r1, r2, r3}
 602:Core/Src/main.c ****             .width = width,
 603:Core/Src/main.c ****             .height = height,
 604:Core/Src/main.c ****             .exec_time_ms = exec_time_ms,
 605:Core/Src/main.c ****             .cpu_cycles = cpu_cycles,
 606:Core/Src/main.c ****             .throughput_pixels_per_sec = throughput,
 607:Core/Src/main.c ****             .checksum = checksum,
 608:Core/Src/main.c ****             .max_iter = MAX_ITER
 609:Core/Src/main.c ****         };
 610:Core/Src/main.c ****         
 611:Core/Src/main.c ****         // Update current values for debugger viewing
 612:Core/Src/main.c ****         current_checksum = checksum;
 836              		.loc 1 612 9 is_stmt 1 view .LVU182
 837              		.loc 1 612 26 is_stmt 0 view .LVU183
 838 0048 344B     		ldr	r3, .L43+12
 839 004a 83ED008B 		vstr.64	d8, [r3]	@ int
 613:Core/Src/main.c ****         current_exec_time = exec_time_ms;
 840              		.loc 1 613 9 is_stmt 1 view .LVU184
 841              		.loc 1 613 27 is_stmt 0 view .LVU185
 842 004e 344B     		ldr	r3, .L43+16
 843 0050 1D60     		str	r5, [r3]
 614:Core/Src/main.c ****         current_cycles = cpu_cycles;
 844              		.loc 1 614 9 is_stmt 1 view .LVU186
 845              		.loc 1 614 24 is_stmt 0 view .LVU187
 846 0052 344B     		ldr	r3, .L43+20
 847 0054 1E60     		str	r6, [r3]
 615:Core/Src/main.c ****         current_throughput = throughput;
 848              		.loc 1 615 9 is_stmt 1 view .LVU188
 849              		.loc 1 615 28 is_stmt 0 view .LVU189
 850 0056 344B     		ldr	r3, .L43+24
 851 0058 C3ED007A 		vstr.32	s15, [r3]
 616:Core/Src/main.c ****         
 617:Core/Src/main.c ****         // Brief pause between tests
 618:Core/Src/main.c ****         HAL_Delay(100);
 852              		.loc 1 618 9 is_stmt 1 view .LVU190
 853 005c 3846     		mov	r0, r7
 854 005e FFF7FEFF 		bl	HAL_Delay
 855              	.LVL71:
 856              		.loc 1 618 9 is_stmt 0 view .LVU191
 857              	.LBE31:
ARM GAS  C:\Users\BANELE~1\AppData\Local\Temp\cc8Zst6e.s 			page 28


 563:Core/Src/main.c ****     {
 858              		.loc 1 563 77 is_stmt 1 discriminator 2 view .LVU192
 859 0062 0134     		adds	r4, r4, #1
 860              	.LVL72:
 861              	.L37:
 563:Core/Src/main.c ****     {
 862              		.loc 1 563 28 discriminator 1 view .LVU193
 863 0064 042C     		cmp	r4, #4
 864 0066 48D8     		bhi	.L42
 865              	.LBB32:
 565:Core/Src/main.c ****         uint16_t width = test_sizes[i][0];
 866              		.loc 1 565 9 view .LVU194
 565:Core/Src/main.c ****         uint16_t width = test_sizes[i][0];
 867              		.loc 1 565 26 is_stmt 0 view .LVU195
 868 0068 4FF0640B 		mov	fp, #100
 869 006c 2F4B     		ldr	r3, .L43+28
 870 006e A3F800B0 		strh	fp, [r3]	@ movhi
 566:Core/Src/main.c ****         uint16_t height = test_sizes[i][1];
 871              		.loc 1 566 9 is_stmt 1 view .LVU196
 566:Core/Src/main.c ****         uint16_t height = test_sizes[i][1];
 872              		.loc 1 566 18 is_stmt 0 view .LVU197
 873 0072 2F4B     		ldr	r3, .L43+32
 874 0074 33F82480 		ldrh	r8, [r3, r4, lsl #2]
 875              	.LVL73:
 567:Core/Src/main.c ****         uint32_t total_pixels = width * height;
 876              		.loc 1 567 9 is_stmt 1 view .LVU198
 567:Core/Src/main.c ****         uint32_t total_pixels = width * height;
 877              		.loc 1 567 18 is_stmt 0 view .LVU199
 878 0078 03EB8403 		add	r3, r3, r4, lsl #2
 879 007c 5F88     		ldrh	r7, [r3, #2]
 880              	.LVL74:
 568:Core/Src/main.c ****         
 881              		.loc 1 568 9 is_stmt 1 view .LVU200
 568:Core/Src/main.c ****         
 882              		.loc 1 568 39 is_stmt 0 view .LVU201
 883 007e 07FB08F9 		mul	r9, r7, r8
 884              	.LVL75:
 571:Core/Src/main.c ****         current_height = height;
 885              		.loc 1 571 9 is_stmt 1 view .LVU202
 571:Core/Src/main.c ****         current_height = height;
 886              		.loc 1 571 23 is_stmt 0 view .LVU203
 887 0082 2C4B     		ldr	r3, .L43+36
 888 0084 A3F80080 		strh	r8, [r3]	@ movhi
 572:Core/Src/main.c ****         
 889              		.loc 1 572 9 is_stmt 1 view .LVU204
 572:Core/Src/main.c ****         
 890              		.loc 1 572 24 is_stmt 0 view .LVU205
 891 0088 2B4B     		ldr	r3, .L43+40
 892 008a 1F80     		strh	r7, [r3]	@ movhi
 575:Core/Src/main.c ****         
 893              		.loc 1 575 9 is_stmt 1 view .LVU206
 894 008c 1021     		movs	r1, #16
 895 008e 2B48     		ldr	r0, .L43+44
 896 0090 FFF7FEFF 		bl	HAL_GPIO_TogglePin
 897              	.LVL76:
 578:Core/Src/main.c ****         start_cycles = DWT->CYCCNT;
 898              		.loc 1 578 9 view .LVU207
ARM GAS  C:\Users\BANELE~1\AppData\Local\Temp\cc8Zst6e.s 			page 29


 578:Core/Src/main.c ****         start_cycles = DWT->CYCCNT;
 899              		.loc 1 578 21 is_stmt 0 view .LVU208
 900 0094 2A4D     		ldr	r5, .L43+48
 901 0096 0023     		movs	r3, #0
 902 0098 6B60     		str	r3, [r5, #4]
 579:Core/Src/main.c ****         start_time = HAL_GetTick();
 903              		.loc 1 579 9 is_stmt 1 view .LVU209
 579:Core/Src/main.c ****         start_time = HAL_GetTick();
 904              		.loc 1 579 27 is_stmt 0 view .LVU210
 905 009a 6B68     		ldr	r3, [r5, #4]
 579:Core/Src/main.c ****         start_time = HAL_GetTick();
 906              		.loc 1 579 22 view .LVU211
 907 009c 294E     		ldr	r6, .L43+52
 908 009e 3360     		str	r3, [r6]
 580:Core/Src/main.c ****         
 909              		.loc 1 580 9 is_stmt 1 view .LVU212
 580:Core/Src/main.c ****         
 910              		.loc 1 580 22 is_stmt 0 view .LVU213
 911 00a0 FFF7FEFF 		bl	HAL_GetTick
 912              	.LVL77:
 580:Core/Src/main.c ****         
 913              		.loc 1 580 20 discriminator 1 view .LVU214
 914 00a4 DFF8ACA0 		ldr	r10, .L43+68
 915 00a8 CAF80000 		str	r0, [r10]
 583:Core/Src/main.c ****         
 916              		.loc 1 583 9 is_stmt 1 view .LVU215
 583:Core/Src/main.c ****         
 917              		.loc 1 583 29 is_stmt 0 view .LVU216
 918 00ac 5A46     		mov	r2, fp
 919 00ae 3946     		mov	r1, r7
 920 00b0 4046     		mov	r0, r8
 921 00b2 FFF7FEFF 		bl	calculate_mandelbrot_fixed_point_arithmetic
 922              	.LVL78:
 923 00b6 08EE100A 		vmov	s16, r0	@ int
 924 00ba 08EE901A 		vmov	s17, r1	@ int
 925              	.LVL79:
 586:Core/Src/main.c ****         end_cycles = DWT->CYCCNT;
 926              		.loc 1 586 9 is_stmt 1 view .LVU217
 586:Core/Src/main.c ****         end_cycles = DWT->CYCCNT;
 927              		.loc 1 586 20 is_stmt 0 view .LVU218
 928 00be FFF7FEFF 		bl	HAL_GetTick
 929              	.LVL80:
 586:Core/Src/main.c ****         end_cycles = DWT->CYCCNT;
 930              		.loc 1 586 18 discriminator 1 view .LVU219
 931 00c2 214B     		ldr	r3, .L43+56
 932 00c4 1860     		str	r0, [r3]
 587:Core/Src/main.c ****         
 933              		.loc 1 587 9 is_stmt 1 view .LVU220
 587:Core/Src/main.c ****         
 934              		.loc 1 587 25 is_stmt 0 view .LVU221
 935 00c6 6968     		ldr	r1, [r5, #4]
 587:Core/Src/main.c ****         
 936              		.loc 1 587 20 view .LVU222
 937 00c8 204A     		ldr	r2, .L43+60
 938 00ca 1160     		str	r1, [r2]
 590:Core/Src/main.c ****         uint32_t cpu_cycles = end_cycles - start_cycles;
 939              		.loc 1 590 9 is_stmt 1 view .LVU223
ARM GAS  C:\Users\BANELE~1\AppData\Local\Temp\cc8Zst6e.s 			page 30


 590:Core/Src/main.c ****         uint32_t cpu_cycles = end_cycles - start_cycles;
 940              		.loc 1 590 42 is_stmt 0 view .LVU224
 941 00cc 1D68     		ldr	r5, [r3]
 942 00ce DAF80030 		ldr	r3, [r10]
 943              	.LVL81:
 591:Core/Src/main.c ****         
 944              		.loc 1 591 9 is_stmt 1 view .LVU225
 591:Core/Src/main.c ****         
 945              		.loc 1 591 42 is_stmt 0 view .LVU226
 946 00d2 1168     		ldr	r1, [r2]
 947 00d4 3668     		ldr	r6, [r6]
 591:Core/Src/main.c ****         
 948              		.loc 1 591 18 view .LVU227
 949 00d6 8E1B     		subs	r6, r1, r6
 950              	.LVL82:
 594:Core/Src/main.c ****         if (exec_time_ms > 0) {
 951              		.loc 1 594 9 is_stmt 1 view .LVU228
 595:Core/Src/main.c ****             // Convert ms to seconds and calculate pixels/sec
 952              		.loc 1 595 9 view .LVU229
 595:Core/Src/main.c ****             // Convert ms to seconds and calculate pixels/sec
 953              		.loc 1 595 12 is_stmt 0 view .LVU230
 954 00d8 ED1A     		subs	r5, r5, r3
 955              	.LVL83:
 595:Core/Src/main.c ****             // Convert ms to seconds and calculate pixels/sec
 956              		.loc 1 595 12 view .LVU231
 957 00da 9AD0     		beq	.L40
 597:Core/Src/main.c ****         }
 958              		.loc 1 597 13 is_stmt 1 view .LVU232
 597:Core/Src/main.c ****         }
 959              		.loc 1 597 26 is_stmt 0 view .LVU233
 960 00dc 07EE909A 		vmov	s15, r9	@ int
 961 00e0 B8EE677A 		vcvt.f32.u32	s14, s15
 597:Core/Src/main.c ****         }
 962              		.loc 1 597 49 view .LVU234
 963 00e4 07EE905A 		vmov	s15, r5	@ int
 964 00e8 B8EE676A 		vcvt.f32.u32	s12, s15
 597:Core/Src/main.c ****         }
 965              		.loc 1 597 69 view .LVU235
 966 00ec DFED187A 		vldr.32	s15, .L43+64
 967 00f0 C6EE276A 		vdiv.f32	s13, s12, s15
 597:Core/Src/main.c ****         }
 968              		.loc 1 597 24 view .LVU236
 969 00f4 C7EE267A 		vdiv.f32	s15, s14, s13
 970              	.LVL84:
 597:Core/Src/main.c ****         }
 971              		.loc 1 597 24 view .LVU237
 972 00f8 8DE7     		b	.L38
 973              	.LVL85:
 974              	.L42:
 597:Core/Src/main.c ****         }
 975              		.loc 1 597 24 view .LVU238
 976              	.LBE32:
 977              	.LBE30:
 619:Core/Src/main.c ****     }
 620:Core/Src/main.c ****     
 621:Core/Src/main.c ****     // Turn off progress LEDs
 622:Core/Src/main.c ****     HAL_GPIO_WritePin(GPIOB, GPIO_PIN_3 | GPIO_PIN_4, GPIO_PIN_RESET);
ARM GAS  C:\Users\BANELE~1\AppData\Local\Temp\cc8Zst6e.s 			page 31


 978              		.loc 1 622 5 is_stmt 1 view .LVU239
 979 00fa 0022     		movs	r2, #0
 980 00fc 1821     		movs	r1, #24
 981 00fe 0F48     		ldr	r0, .L43+44
 982 0100 FFF7FEFF 		bl	HAL_GPIO_WritePin
 983              	.LVL86:
 623:Core/Src/main.c **** }
 984              		.loc 1 623 1 is_stmt 0 view .LVU240
 985 0104 09B0     		add	sp, sp, #36
 986              	.LCFI12:
 987              		.cfi_def_cfa_offset 44
 988              		@ sp needed
 989 0106 BDEC028B 		vldm	sp!, {d8}
 990              	.LCFI13:
 991              		.cfi_restore 80
 992              		.cfi_restore 81
 993              		.cfi_def_cfa_offset 36
 994 010a BDE8F08F 		pop	{r4, r5, r6, r7, r8, r9, r10, fp, pc}
 995              	.LVL87:
 996              	.L44:
 997              		.loc 1 623 1 view .LVU241
 998 010e 00BF     		.align	2
 999              	.L43:
 1000 0110 00000000 		.word	progress
 1001 0114 00000000 		.word	0
 1002 0118 00000000 		.word	task3_results
 1003 011c 00000000 		.word	current_checksum
 1004 0120 00000000 		.word	current_exec_time
 1005 0124 00000000 		.word	current_cycles
 1006 0128 00000000 		.word	current_throughput
 1007 012c 00000000 		.word	current_max_iter
 1008 0130 00000000 		.word	test_sizes
 1009 0134 00000000 		.word	current_width
 1010 0138 00000000 		.word	current_height
 1011 013c 00040240 		.word	1073873920
 1012 0140 001000E0 		.word	-536866816
 1013 0144 00000000 		.word	start_cycles
 1014 0148 00000000 		.word	end_time
 1015 014c 00000000 		.word	end_cycles
 1016 0150 00007A44 		.word	1148846080
 1017 0154 00000000 		.word	start_time
 1018              		.cfi_endproc
 1019              	.LFE144:
 1021              		.section	.text.run_task4_scalability_test_f4,"ax",%progbits
 1022              		.align	1
 1023              		.global	run_task4_scalability_test_f4
 1024              		.syntax unified
 1025              		.thumb
 1026              		.thumb_func
 1028              	run_task4_scalability_test_f4:
 1029              	.LFB145:
 624:Core/Src/main.c **** 
 625:Core/Src/main.c **** // task 4 method for scalability
 626:Core/Src/main.c **** void run_task4_scalability_test_f4(void) {
 1030              		.loc 1 626 42 is_stmt 1 view -0
 1031              		.cfi_startproc
 1032              		@ args = 0, pretend = 0, frame = 24
ARM GAS  C:\Users\BANELE~1\AppData\Local\Temp\cc8Zst6e.s 			page 32


 1033              		@ frame_needed = 0, uses_anonymous_args = 0
 1034 0000 2DE9F04B 		push	{r4, r5, r6, r7, r8, r9, fp, lr}
 1035              	.LCFI14:
 1036              		.cfi_def_cfa_offset 32
 1037              		.cfi_offset 4, -32
 1038              		.cfi_offset 5, -28
 1039              		.cfi_offset 6, -24
 1040              		.cfi_offset 7, -20
 1041              		.cfi_offset 8, -16
 1042              		.cfi_offset 9, -12
 1043              		.cfi_offset 11, -8
 1044              		.cfi_offset 14, -4
 1045 0004 86B0     		sub	sp, sp, #24
 1046              	.LCFI15:
 1047              		.cfi_def_cfa_offset 56
 627:Core/Src/main.c ****     for (int i = 0; i < num_task4_tests; ++i) {
 1048              		.loc 1 627 5 view .LVU243
 1049              	.LBB33:
 1050              		.loc 1 627 10 view .LVU244
 1051              	.LVL88:
 1052              		.loc 1 627 14 is_stmt 0 view .LVU245
 1053 0006 0024     		movs	r4, #0
 1054              		.loc 1 627 5 view .LVU246
 1055 0008 2EE0     		b	.L46
 1056              	.LVL89:
 1057              	.L47:
 1058              	.LBB34:
 628:Core/Src/main.c ****         uint16_t w = task4_sizes[i][0];
 629:Core/Src/main.c ****         uint16_t h = task4_sizes[i][1];
 630:Core/Src/main.c ****         uint32_t total_pixels = (uint32_t)w * (uint32_t)h;
 631:Core/Src/main.c ****         
 632:Core/Src/main.c ****         t4_current_w = w;
 633:Core/Src/main.c ****         t4_current_h = h;
 634:Core/Src/main.c ****         HAL_GPIO_TogglePin(GPIOB, GPIO_PIN_5); // Progress indicator
 635:Core/Src/main.c ****         
 636:Core/Src/main.c ****         uint64_t checksum = 0;
 637:Core/Src/main.c ****         uint32_t start_time = HAL_GetTick();
 638:Core/Src/main.c ****         uint8_t parts_used = 1;
 639:Core/Src/main.c ****         
 640:Core/Src/main.c ****         // STM32F4 has more memory, so we handle larger images
 641:Core/Src/main.c ****         // But for very large images (2K+), we might need to split
 642:Core/Src/main.c ****         if (total_pixels > 2000000) { // 2MPixels threshold for F4
 643:Core/Src/main.c ****             parts_used = 2;
 644:Core/Src/main.c ****             // Split into two halves
 645:Core/Src/main.c ****             int mid_point = h / 2;
 646:Core/Src/main.c ****             checksum += calculate_mandelbrot_fixed_point_arithmetic(w, mid_point, MAX_ITER);
 647:Core/Src/main.c ****             checksum += calculate_mandelbrot_fixed_point_arithmetic(w, h - mid_point, MAX_ITER);
 648:Core/Src/main.c ****         } else {
 649:Core/Src/main.c ****             // Process in one go - F4 can handle most sizes
 650:Core/Src/main.c ****             checksum = calculate_mandelbrot_fixed_point_arithmetic(w, h, MAX_ITER);
 1059              		.loc 1 650 13 is_stmt 1 view .LVU247
 1060              		.loc 1 650 24 is_stmt 0 view .LVU248
 1061 000a 6422     		movs	r2, #100
 1062 000c 4946     		mov	r1, r9
 1063 000e 3846     		mov	r0, r7
 1064              	.LVL90:
 1065              		.loc 1 650 24 view .LVU249
ARM GAS  C:\Users\BANELE~1\AppData\Local\Temp\cc8Zst6e.s 			page 33


 1066 0010 FFF7FEFF 		bl	calculate_mandelbrot_fixed_point_arithmetic
 1067              	.LVL91:
 1068 0014 0546     		mov	r5, r0
 1069              	.LVL92:
 1070              		.loc 1 650 24 view .LVU250
 1071 0016 0E46     		mov	r6, r1
 1072              	.LVL93:
 638:Core/Src/main.c ****         
 1073              		.loc 1 638 17 view .LVU251
 1074 0018 4FF00108 		mov	r8, #1
 1075              	.LVL94:
 1076              	.L48:
 651:Core/Src/main.c ****         }
 652:Core/Src/main.c ****         
 653:Core/Src/main.c ****         uint32_t end_time = HAL_GetTick();
 1077              		.loc 1 653 9 is_stmt 1 view .LVU252
 1078              		.loc 1 653 29 is_stmt 0 view .LVU253
 1079 001c FFF7FEFF 		bl	HAL_GetTick
 1080              	.LVL95:
 654:Core/Src/main.c ****         uint32_t elapsed_ms = end_time - start_time;
 1081              		.loc 1 654 9 is_stmt 1 view .LVU254
 1082              		.loc 1 654 18 is_stmt 0 view .LVU255
 1083 0020 A0EB0B0B 		sub	fp, r0, fp
 1084              	.LVL96:
 655:Core/Src/main.c ****         
 656:Core/Src/main.c ****         task4_results[i] = (Task4Result){
 1085              		.loc 1 656 9 is_stmt 1 view .LVU256
 1086              		.loc 1 656 26 is_stmt 0 view .LVU257
 1087 0024 ADF80070 		strh	r7, [sp]	@ movhi
 1088 0028 ADF80290 		strh	r9, [sp, #2]	@ movhi
 1089 002c CDF804B0 		str	fp, [sp, #4]
 1090 0030 0295     		str	r5, [sp, #8]
 1091 0032 0396     		str	r6, [sp, #12]
 1092 0034 8DF81080 		strb	r8, [sp, #16]
 1093 0038 04EB4402 		add	r2, r4, r4, lsl #1
 1094 003c 234B     		ldr	r3, .L52
 1095 003e 03EBC20C 		add	ip, r3, r2, lsl #3
 1096 0042 EE46     		mov	lr, sp
 1097 0044 BEE80F00 		ldmia	lr!, {r0, r1, r2, r3}
 1098              	.LVL97:
 1099              		.loc 1 656 26 view .LVU258
 1100 0048 ACE80F00 		stmia	ip!, {r0, r1, r2, r3}
 1101 004c 9EE80300 		ldm	lr, {r0, r1}
 1102 0050 8CE80300 		stm	ip, {r0, r1}
 657:Core/Src/main.c ****             .width = w,
 658:Core/Src/main.c ****             .height = h,
 659:Core/Src/main.c ****             .exec_time_ms = elapsed_ms,
 660:Core/Src/main.c ****             .checksum = checksum,
 661:Core/Src/main.c ****             .processed_in_parts = parts_used
 662:Core/Src/main.c ****         };
 663:Core/Src/main.c ****         
 664:Core/Src/main.c ****         t4_exec_ms = elapsed_ms;
 1103              		.loc 1 664 9 is_stmt 1 view .LVU259
 1104              		.loc 1 664 20 is_stmt 0 view .LVU260
 1105 0054 1E4B     		ldr	r3, .L52+4
 1106 0056 C3F800B0 		str	fp, [r3]
 665:Core/Src/main.c ****         t4_parts = parts_used;
ARM GAS  C:\Users\BANELE~1\AppData\Local\Temp\cc8Zst6e.s 			page 34


 1107              		.loc 1 665 9 is_stmt 1 view .LVU261
 1108              		.loc 1 665 18 is_stmt 0 view .LVU262
 1109 005a 1E4B     		ldr	r3, .L52+8
 1110 005c 83F80080 		strb	r8, [r3]
 666:Core/Src/main.c ****         
 667:Core/Src/main.c ****         HAL_Delay(50); // Short delay between tests
 1111              		.loc 1 667 9 is_stmt 1 view .LVU263
 1112 0060 3220     		movs	r0, #50
 1113 0062 FFF7FEFF 		bl	HAL_Delay
 1114              	.LVL98:
 1115              	.LBE34:
 627:Core/Src/main.c ****         uint16_t w = task4_sizes[i][0];
 1116              		.loc 1 627 42 discriminator 2 view .LVU264
 1117 0066 0134     		adds	r4, r4, #1
 1118              	.LVL99:
 1119              	.L46:
 627:Core/Src/main.c ****         uint16_t w = task4_sizes[i][0];
 1120              		.loc 1 627 23 discriminator 1 view .LVU265
 1121 0068 052C     		cmp	r4, #5
 1122 006a 2CDC     		bgt	.L51
 1123              	.LBB36:
 628:Core/Src/main.c ****         uint16_t h = task4_sizes[i][1];
 1124              		.loc 1 628 9 view .LVU266
 628:Core/Src/main.c ****         uint16_t h = task4_sizes[i][1];
 1125              		.loc 1 628 18 is_stmt 0 view .LVU267
 1126 006c 1A4B     		ldr	r3, .L52+12
 1127 006e 33F82470 		ldrh	r7, [r3, r4, lsl #2]
 1128              	.LVL100:
 629:Core/Src/main.c ****         uint32_t total_pixels = (uint32_t)w * (uint32_t)h;
 1129              		.loc 1 629 9 is_stmt 1 view .LVU268
 629:Core/Src/main.c ****         uint32_t total_pixels = (uint32_t)w * (uint32_t)h;
 1130              		.loc 1 629 18 is_stmt 0 view .LVU269
 1131 0072 03EB8403 		add	r3, r3, r4, lsl #2
 1132 0076 B3F80290 		ldrh	r9, [r3, #2]
 1133              	.LVL101:
 630:Core/Src/main.c ****         
 1134              		.loc 1 630 9 is_stmt 1 view .LVU270
 630:Core/Src/main.c ****         
 1135              		.loc 1 630 18 is_stmt 0 view .LVU271
 1136 007a 09FB07F5 		mul	r5, r9, r7
 1137              	.LVL102:
 632:Core/Src/main.c ****         t4_current_h = h;
 1138              		.loc 1 632 9 is_stmt 1 view .LVU272
 632:Core/Src/main.c ****         t4_current_h = h;
 1139              		.loc 1 632 22 is_stmt 0 view .LVU273
 1140 007e 174B     		ldr	r3, .L52+16
 1141 0080 1F80     		strh	r7, [r3]	@ movhi
 633:Core/Src/main.c ****         HAL_GPIO_TogglePin(GPIOB, GPIO_PIN_5); // Progress indicator
 1142              		.loc 1 633 9 is_stmt 1 view .LVU274
 633:Core/Src/main.c ****         HAL_GPIO_TogglePin(GPIOB, GPIO_PIN_5); // Progress indicator
 1143              		.loc 1 633 22 is_stmt 0 view .LVU275
 1144 0082 174B     		ldr	r3, .L52+20
 1145 0084 A3F80090 		strh	r9, [r3]	@ movhi
 634:Core/Src/main.c ****         
 1146              		.loc 1 634 9 is_stmt 1 view .LVU276
 1147 0088 2021     		movs	r1, #32
 1148 008a 1648     		ldr	r0, .L52+24
ARM GAS  C:\Users\BANELE~1\AppData\Local\Temp\cc8Zst6e.s 			page 35


 1149 008c FFF7FEFF 		bl	HAL_GPIO_TogglePin
 1150              	.LVL103:
 636:Core/Src/main.c ****         uint32_t start_time = HAL_GetTick();
 1151              		.loc 1 636 9 view .LVU277
 637:Core/Src/main.c ****         uint8_t parts_used = 1;
 1152              		.loc 1 637 9 view .LVU278
 637:Core/Src/main.c ****         uint8_t parts_used = 1;
 1153              		.loc 1 637 31 is_stmt 0 view .LVU279
 1154 0090 FFF7FEFF 		bl	HAL_GetTick
 1155              	.LVL104:
 1156 0094 8346     		mov	fp, r0
 1157              	.LVL105:
 638:Core/Src/main.c ****         
 1158              		.loc 1 638 9 is_stmt 1 view .LVU280
 642:Core/Src/main.c ****             parts_used = 2;
 1159              		.loc 1 642 9 view .LVU281
 642:Core/Src/main.c ****             parts_used = 2;
 1160              		.loc 1 642 12 is_stmt 0 view .LVU282
 1161 0096 144B     		ldr	r3, .L52+28
 1162 0098 9D42     		cmp	r5, r3
 1163 009a B6D9     		bls	.L47
 1164              	.LBB35:
 643:Core/Src/main.c ****             // Split into two halves
 1165              		.loc 1 643 13 is_stmt 1 view .LVU283
 1166              	.LVL106:
 645:Core/Src/main.c ****             checksum += calculate_mandelbrot_fixed_point_arithmetic(w, mid_point, MAX_ITER);
 1167              		.loc 1 645 13 view .LVU284
 645:Core/Src/main.c ****             checksum += calculate_mandelbrot_fixed_point_arithmetic(w, mid_point, MAX_ITER);
 1168              		.loc 1 645 31 is_stmt 0 view .LVU285
 1169 009c 4FEA5908 		lsr	r8, r9, #1
 646:Core/Src/main.c ****             checksum += calculate_mandelbrot_fixed_point_arithmetic(w, h - mid_point, MAX_ITER);
 1170              		.loc 1 646 13 is_stmt 1 view .LVU286
 646:Core/Src/main.c ****             checksum += calculate_mandelbrot_fixed_point_arithmetic(w, h - mid_point, MAX_ITER);
 1171              		.loc 1 646 25 is_stmt 0 view .LVU287
 1172 00a0 6422     		movs	r2, #100
 1173 00a2 4146     		mov	r1, r8
 1174 00a4 3846     		mov	r0, r7
 1175              	.LVL107:
 646:Core/Src/main.c ****             checksum += calculate_mandelbrot_fixed_point_arithmetic(w, h - mid_point, MAX_ITER);
 1176              		.loc 1 646 25 view .LVU288
 1177 00a6 FFF7FEFF 		bl	calculate_mandelbrot_fixed_point_arithmetic
 1178              	.LVL108:
 1179 00aa 0546     		mov	r5, r0
 1180              	.LVL109:
 646:Core/Src/main.c ****             checksum += calculate_mandelbrot_fixed_point_arithmetic(w, h - mid_point, MAX_ITER);
 1181              		.loc 1 646 25 view .LVU289
 1182 00ac 0E46     		mov	r6, r1
 1183              	.LVL110:
 647:Core/Src/main.c ****         } else {
 1184              		.loc 1 647 13 is_stmt 1 view .LVU290
 647:Core/Src/main.c ****         } else {
 1185              		.loc 1 647 25 is_stmt 0 view .LVU291
 1186 00ae 6422     		movs	r2, #100
 1187 00b0 A9EB0801 		sub	r1, r9, r8
 1188              	.LVL111:
 647:Core/Src/main.c ****         } else {
 1189              		.loc 1 647 25 view .LVU292
ARM GAS  C:\Users\BANELE~1\AppData\Local\Temp\cc8Zst6e.s 			page 36


 1190 00b4 3846     		mov	r0, r7
 1191              	.LVL112:
 647:Core/Src/main.c ****         } else {
 1192              		.loc 1 647 25 view .LVU293
 1193 00b6 FFF7FEFF 		bl	calculate_mandelbrot_fixed_point_arithmetic
 1194              	.LVL113:
 647:Core/Src/main.c ****         } else {
 1195              		.loc 1 647 22 discriminator 1 view .LVU294
 1196 00ba 2D18     		adds	r5, r5, r0
 1197              	.LVL114:
 647:Core/Src/main.c ****         } else {
 1198              		.loc 1 647 22 discriminator 1 view .LVU295
 1199 00bc 46EB0106 		adc	r6, r6, r1
 1200              	.LVL115:
 643:Core/Src/main.c ****             // Split into two halves
 1201              		.loc 1 643 24 view .LVU296
 1202 00c0 4FF00208 		mov	r8, #2
 1203              	.LBE35:
 1204 00c4 AAE7     		b	.L48
 1205              	.LVL116:
 1206              	.L51:
 643:Core/Src/main.c ****             // Split into two halves
 1207              		.loc 1 643 24 view .LVU297
 1208              	.LBE36:
 1209              	.LBE33:
 668:Core/Src/main.c ****     }
 669:Core/Src/main.c **** }
 1210              		.loc 1 669 1 view .LVU298
 1211 00c6 06B0     		add	sp, sp, #24
 1212              	.LCFI16:
 1213              		.cfi_def_cfa_offset 32
 1214              		@ sp needed
 1215 00c8 BDE8F08B 		pop	{r4, r5, r6, r7, r8, r9, fp, pc}
 1216              	.LVL117:
 1217              	.L53:
 1218              		.loc 1 669 1 view .LVU299
 1219              		.align	2
 1220              	.L52:
 1221 00cc 00000000 		.word	task4_results
 1222 00d0 00000000 		.word	t4_exec_ms
 1223 00d4 00000000 		.word	t4_parts
 1224 00d8 00000000 		.word	task4_sizes
 1225 00dc 00000000 		.word	t4_current_w
 1226 00e0 00000000 		.word	t4_current_h
 1227 00e4 00040240 		.word	1073873920
 1228 00e8 80841E00 		.word	2000000
 1229              		.cfi_endproc
 1230              	.LFE145:
 1232              		.section	.text.calculate_mandelbrot_float,"ax",%progbits
 1233              		.align	1
 1234              		.global	calculate_mandelbrot_float
 1235              		.syntax unified
 1236              		.thumb
 1237              		.thumb_func
 1239              	calculate_mandelbrot_float:
 1240              	.LVL118:
 1241              	.LFB146:
ARM GAS  C:\Users\BANELE~1\AppData\Local\Temp\cc8Zst6e.s 			page 37


 670:Core/Src/main.c **** // Mandelbrot implementation using float (with FPU)
 671:Core/Src/main.c **** uint64_t calculate_mandelbrot_float(int width, int height, int max_iterations) {
 1242              		.loc 1 671 80 is_stmt 1 view -0
 1243              		.cfi_startproc
 1244              		@ args = 0, pretend = 0, frame = 0
 1245              		@ frame_needed = 0, uses_anonymous_args = 0
 1246              		.loc 1 671 80 is_stmt 0 view .LVU301
 1247 0000 00B5     		push	{lr}
 1248              	.LCFI17:
 1249              		.cfi_def_cfa_offset 4
 1250              		.cfi_offset 14, -4
 1251 0002 8646     		mov	lr, r0
 1252 0004 03EE101A 		vmov	s6, r1	@ int
 672:Core/Src/main.c ****     uint64_t mandelbrot_sum = 0;
 1253              		.loc 1 672 5 is_stmt 1 view .LVU302
 1254              	.LVL119:
 673:Core/Src/main.c ****     for (int y = 0; y < height; y++) {
 1255              		.loc 1 673 5 view .LVU303
 1256              	.LBB37:
 1257              		.loc 1 673 10 view .LVU304
 1258              		.loc 1 673 14 is_stmt 0 view .LVU305
 1259 0008 DFED2D3A 		vldr.32	s7, .L65	@ int
 1260              	.LBE37:
 672:Core/Src/main.c ****     uint64_t mandelbrot_sum = 0;
 1261              		.loc 1 672 14 view .LVU306
 1262 000c 13EE900A 		vmov	r0, s7	@ int
 1263              	.LVL120:
 672:Core/Src/main.c ****     uint64_t mandelbrot_sum = 0;
 1264              		.loc 1 672 14 view .LVU307
 1265 0010 13EE901A 		vmov	r1, s7	@ int
 1266              	.LVL121:
 1267              	.LBB43:
 1268              		.loc 1 673 5 view .LVU308
 1269 0014 49E0     		b	.L55
 1270              	.LVL122:
 1271              	.L58:
 1272              	.LBB38:
 1273              	.LBB39:
 1274              	.LBB40:
 674:Core/Src/main.c ****         for(int x = 0; x < width; x++) {
 675:Core/Src/main.c ****             float x0 = ((float)x/width)*3.5f-2.5f;
 676:Core/Src/main.c ****             float y0 = ((float)y/height)*2.0f-1.0f;
 677:Core/Src/main.c ****             float xi = 0.0f, yi = 0.0f;
 678:Core/Src/main.c ****             int iterations = 0;
 679:Core/Src/main.c **** 
 680:Core/Src/main.c ****             while(iterations < max_iterations && (xi * xi + yi * yi) <= 4.0f) {
 681:Core/Src/main.c ****                 float temp = xi * xi - yi * yi;
 1275              		.loc 1 681 17 is_stmt 1 view .LVU309
 1276              		.loc 1 681 23 is_stmt 0 view .LVU310
 1277 0016 76EEC66A 		vsub.f32	s13, s13, s12
 1278              	.LVL123:
 682:Core/Src/main.c ****                 yi = 2.0f * xi * yi + y0;
 1279              		.loc 1 682 17 is_stmt 1 view .LVU311
 1280              		.loc 1 682 27 is_stmt 0 view .LVU312
 1281 001a 77EEA77A 		vadd.f32	s15, s15, s15
 1282              	.LVL124:
 1283              		.loc 1 682 32 view .LVU313
ARM GAS  C:\Users\BANELE~1\AppData\Local\Temp\cc8Zst6e.s 			page 38


 1284 001e 27EE877A 		vmul.f32	s14, s15, s14
 1285              	.LVL125:
 1286              		.loc 1 682 20 view .LVU314
 1287 0022 37EE247A 		vadd.f32	s14, s14, s9
 1288              	.LVL126:
 683:Core/Src/main.c ****                 xi = temp + x0;
 1289              		.loc 1 683 17 is_stmt 1 view .LVU315
 1290              		.loc 1 683 20 is_stmt 0 view .LVU316
 1291 0026 74EE267A 		vadd.f32	s15, s8, s13
 1292              	.LVL127:
 684:Core/Src/main.c ****                 iterations++;
 1293              		.loc 1 684 17 is_stmt 1 view .LVU317
 1294              		.loc 1 684 27 is_stmt 0 view .LVU318
 1295 002a 0133     		adds	r3, r3, #1
 1296              	.LVL128:
 1297              	.L56:
 1298              		.loc 1 684 27 view .LVU319
 1299              	.LBE40:
 680:Core/Src/main.c ****                 float temp = xi * xi - yi * yi;
 1300              		.loc 1 680 47 is_stmt 1 view .LVU320
 1301 002c 9342     		cmp	r3, r2
 1302 002e 0CDA     		bge	.L57
 680:Core/Src/main.c ****                 float temp = xi * xi - yi * yi;
 1303              		.loc 1 680 54 is_stmt 0 discriminator 1 view .LVU321
 1304 0030 67EEA76A 		vmul.f32	s13, s15, s15
 680:Core/Src/main.c ****                 float temp = xi * xi - yi * yi;
 1305              		.loc 1 680 64 discriminator 1 view .LVU322
 1306 0034 27EE076A 		vmul.f32	s12, s14, s14
 680:Core/Src/main.c ****                 float temp = xi * xi - yi * yi;
 1307              		.loc 1 680 59 discriminator 1 view .LVU323
 1308 0038 36EE865A 		vadd.f32	s10, s13, s12
 680:Core/Src/main.c ****                 float temp = xi * xi - yi * yi;
 1309              		.loc 1 680 47 discriminator 1 view .LVU324
 1310 003c F1EE005A 		vmov.f32	s11, #4.0e+0
 1311 0040 B4EEE55A 		vcmpe.f32	s10, s11
 1312 0044 F1EE10FA 		vmrs	APSR_nzcv, FPSCR
 1313 0048 E5D9     		bls	.L58
 1314              	.L57:
 685:Core/Src/main.c ****             }
 686:Core/Src/main.c ****             mandelbrot_sum += iterations;
 1315              		.loc 1 686 13 is_stmt 1 view .LVU325
 1316              		.loc 1 686 28 is_stmt 0 view .LVU326
 1317 004a 1818     		adds	r0, r3, r0
 1318              	.LVL129:
 1319              		.loc 1 686 28 view .LVU327
 1320 004c 41EBE371 		adc	r1, r1, r3, asr #31
 1321              	.LVL130:
 1322              		.loc 1 686 28 view .LVU328
 1323              	.LBE39:
 674:Core/Src/main.c ****             float x0 = ((float)x/width)*3.5f-2.5f;
 1324              		.loc 1 674 36 is_stmt 1 discriminator 2 view .LVU329
 1325 0050 0CF1010C 		add	ip, ip, #1
 1326              	.LVL131:
 1327              	.L60:
 674:Core/Src/main.c ****             float x0 = ((float)x/width)*3.5f-2.5f;
 1328              		.loc 1 674 26 discriminator 1 view .LVU330
 1329 0054 F445     		cmp	ip, lr
ARM GAS  C:\Users\BANELE~1\AppData\Local\Temp\cc8Zst6e.s 			page 39


 1330 0056 23DA     		bge	.L63
 1331              	.LBB41:
 675:Core/Src/main.c ****             float y0 = ((float)y/height)*2.0f-1.0f;
 1332              		.loc 1 675 13 view .LVU331
 675:Core/Src/main.c ****             float y0 = ((float)y/height)*2.0f-1.0f;
 1333              		.loc 1 675 25 is_stmt 0 view .LVU332
 1334 0058 07EE90CA 		vmov	s15, ip	@ int
 1335 005c F8EEE77A 		vcvt.f32.s32	s15, s15
 675:Core/Src/main.c ****             float y0 = ((float)y/height)*2.0f-1.0f;
 1336              		.loc 1 675 33 view .LVU333
 1337 0060 07EE10EA 		vmov	s14, lr	@ int
 1338 0064 B8EEC77A 		vcvt.f32.s32	s14, s14
 1339 0068 87EE874A 		vdiv.f32	s8, s15, s14
 675:Core/Src/main.c ****             float y0 = ((float)y/height)*2.0f-1.0f;
 1340              		.loc 1 675 40 view .LVU334
 1341 006c F0EE0C7A 		vmov.f32	s15, #3.5e+0
 1342 0070 24EE274A 		vmul.f32	s8, s8, s15
 675:Core/Src/main.c ****             float y0 = ((float)y/height)*2.0f-1.0f;
 1343              		.loc 1 675 19 view .LVU335
 1344 0074 F0EE047A 		vmov.f32	s15, #2.5e+0
 1345 0078 34EE674A 		vsub.f32	s8, s8, s15
 1346              	.LVL132:
 676:Core/Src/main.c ****             float xi = 0.0f, yi = 0.0f;
 1347              		.loc 1 676 13 is_stmt 1 view .LVU336
 676:Core/Src/main.c ****             float xi = 0.0f, yi = 0.0f;
 1348              		.loc 1 676 25 is_stmt 0 view .LVU337
 1349 007c F8EEE37A 		vcvt.f32.s32	s15, s7
 676:Core/Src/main.c ****             float xi = 0.0f, yi = 0.0f;
 1350              		.loc 1 676 33 view .LVU338
 1351 0080 B8EEC37A 		vcvt.f32.s32	s14, s6
 1352 0084 C7EE874A 		vdiv.f32	s9, s15, s14
 676:Core/Src/main.c ****             float xi = 0.0f, yi = 0.0f;
 1353              		.loc 1 676 41 view .LVU339
 1354 0088 74EEA44A 		vadd.f32	s9, s9, s9
 676:Core/Src/main.c ****             float xi = 0.0f, yi = 0.0f;
 1355              		.loc 1 676 19 view .LVU340
 1356 008c F7EE007A 		vmov.f32	s15, #1.0e+0
 1357 0090 74EEE74A 		vsub.f32	s9, s9, s15
 1358              	.LVL133:
 677:Core/Src/main.c ****             int iterations = 0;
 1359              		.loc 1 677 13 is_stmt 1 view .LVU341
 678:Core/Src/main.c **** 
 1360              		.loc 1 678 13 view .LVU342
 680:Core/Src/main.c ****                 float temp = xi * xi - yi * yi;
 1361              		.loc 1 680 13 view .LVU343
 678:Core/Src/main.c **** 
 1362              		.loc 1 678 17 is_stmt 0 view .LVU344
 1363 0094 0023     		movs	r3, #0
 677:Core/Src/main.c ****             int iterations = 0;
 1364              		.loc 1 677 30 view .LVU345
 1365 0096 9FED0B7A 		vldr.32	s14, .L65+4
 677:Core/Src/main.c ****             int iterations = 0;
 1366              		.loc 1 677 19 view .LVU346
 1367 009a F0EE477A 		vmov.f32	s15, s14
 680:Core/Src/main.c ****                 float temp = xi * xi - yi * yi;
 1368              		.loc 1 680 18 view .LVU347
 1369 009e C5E7     		b	.L56
ARM GAS  C:\Users\BANELE~1\AppData\Local\Temp\cc8Zst6e.s 			page 40


 1370              	.LVL134:
 1371              	.L63:
 680:Core/Src/main.c ****                 float temp = xi * xi - yi * yi;
 1372              		.loc 1 680 18 view .LVU348
 1373              	.LBE41:
 1374              	.LBE38:
 673:Core/Src/main.c ****         for(int x = 0; x < width; x++) {
 1375              		.loc 1 673 34 is_stmt 1 discriminator 2 view .LVU349
 1376 00a0 13EE903A 		vmov	r3, s7	@ int
 1377 00a4 0133     		adds	r3, r3, #1
 1378 00a6 03EE903A 		vmov	s7, r3	@ int
 1379              	.LVL135:
 1380              	.L55:
 673:Core/Src/main.c ****         for(int x = 0; x < width; x++) {
 1381              		.loc 1 673 23 discriminator 1 view .LVU350
 1382 00aa 13EE903A 		vmov	r3, s7	@ int
 1383 00ae 13EE10CA 		vmov	ip, s6	@ int
 1384 00b2 6345     		cmp	r3, ip
 1385 00b4 02DA     		bge	.L64
 1386              	.LVL136:
 1387              	.LBB42:
 674:Core/Src/main.c ****             float x0 = ((float)x/width)*3.5f-2.5f;
 1388              		.loc 1 674 17 is_stmt 0 view .LVU351
 1389 00b6 4FF0000C 		mov	ip, #0
 1390              	.LVL137:
 674:Core/Src/main.c ****             float x0 = ((float)x/width)*3.5f-2.5f;
 1391              		.loc 1 674 17 view .LVU352
 1392 00ba CBE7     		b	.L60
 1393              	.LVL138:
 1394              	.L64:
 674:Core/Src/main.c ****             float x0 = ((float)x/width)*3.5f-2.5f;
 1395              		.loc 1 674 17 view .LVU353
 1396              	.LBE42:
 1397              	.LBE43:
 687:Core/Src/main.c ****         }
 688:Core/Src/main.c ****     }
 689:Core/Src/main.c ****     return mandelbrot_sum;
 1398              		.loc 1 689 5 is_stmt 1 view .LVU354
 690:Core/Src/main.c **** }
 1399              		.loc 1 690 1 is_stmt 0 view .LVU355
 1400 00bc 5DF804FB 		ldr	pc, [sp], #4
 1401              	.L66:
 1402              		.align	2
 1403              	.L65:
 1404 00c0 00000000 		.word	0
 1405 00c4 00000000 		.word	0
 1406              		.cfi_endproc
 1407              	.LFE146:
 1409              		.section	.text.calculate_mandelbrot_float_fpu,"ax",%progbits
 1410              		.align	1
 1411              		.global	calculate_mandelbrot_float_fpu
 1412              		.syntax unified
 1413              		.thumb
 1414              		.thumb_func
 1416              	calculate_mandelbrot_float_fpu:
 1417              	.LVL139:
 1418              	.LFB147:
ARM GAS  C:\Users\BANELE~1\AppData\Local\Temp\cc8Zst6e.s 			page 41


 691:Core/Src/main.c **** uint64_t calculate_mandelbrot_float_fpu(int width, int height, int max_iterations) {
 1419              		.loc 1 691 84 is_stmt 1 view -0
 1420              		.cfi_startproc
 1421              		@ args = 0, pretend = 0, frame = 0
 1422              		@ frame_needed = 0, uses_anonymous_args = 0
 1423              		.loc 1 691 84 is_stmt 0 view .LVU357
 1424 0000 F8B5     		push	{r3, r4, r5, r6, r7, lr}
 1425              	.LCFI18:
 1426              		.cfi_def_cfa_offset 24
 1427              		.cfi_offset 3, -24
 1428              		.cfi_offset 4, -20
 1429              		.cfi_offset 5, -16
 1430              		.cfi_offset 6, -12
 1431              		.cfi_offset 7, -8
 1432              		.cfi_offset 14, -4
 1433 0002 2DED028B 		vpush.64	{d8}
 1434              	.LCFI19:
 1435              		.cfi_def_cfa_offset 32
 1436              		.cfi_offset 80, -32
 1437              		.cfi_offset 81, -28
 1438 0006 0646     		mov	r6, r0
 1439 0008 08EE901A 		vmov	s17, r1	@ int
 1440 000c 1446     		mov	r4, r2
 692:Core/Src/main.c ****     uint64_t mandelbrot_sum = 0;
 1441              		.loc 1 692 5 is_stmt 1 view .LVU358
 1442              	.LVL140:
 693:Core/Src/main.c ****     for (int y = 0; y < height; y++) {
 1443              		.loc 1 693 5 view .LVU359
 1444              	.LBB44:
 1445              		.loc 1 693 10 view .LVU360
 1446              		.loc 1 693 14 is_stmt 0 view .LVU361
 1447 000e 9FED338A 		vldr.32	s16, .L80	@ int
 1448              	.LBE44:
 692:Core/Src/main.c ****     uint64_t mandelbrot_sum = 0;
 1449              		.loc 1 692 14 view .LVU362
 1450 0012 18EE105A 		vmov	r5, s16	@ int
 1451 0016 18EE107A 		vmov	r7, s16	@ int
 1452              	.LBB50:
 1453              		.loc 1 693 5 view .LVU363
 1454 001a 4DE0     		b	.L68
 1455              	.LVL141:
 1456              	.L79:
 694:Core/Src/main.c ****         // Progress indicator
 695:Core/Src/main.c ****         if ((y & 15) == 0) {
 696:Core/Src/main.c ****             HAL_GPIO_TogglePin(GPIOB, GPIO_PIN_6);
 1457              		.loc 1 696 13 is_stmt 1 view .LVU364
 1458 001c 4021     		movs	r1, #64
 1459 001e 3048     		ldr	r0, .L80+4
 1460 0020 FFF7FEFF 		bl	HAL_GPIO_TogglePin
 1461              	.LVL142:
 1462              		.loc 1 696 13 is_stmt 0 view .LVU365
 1463 0024 53E0     		b	.L69
 1464              	.LVL143:
 1465              	.L73:
 1466              	.LBB45:
 1467              	.LBB46:
 1468              	.LBB47:
ARM GAS  C:\Users\BANELE~1\AppData\Local\Temp\cc8Zst6e.s 			page 42


 697:Core/Src/main.c ****         }
 698:Core/Src/main.c ****         
 699:Core/Src/main.c ****         for(int x = 0; x < width; x++) {
 700:Core/Src/main.c ****             float x0 = ((float)x/(float)width)*3.5f-2.5f;
 701:Core/Src/main.c ****             float y0 = ((float)y/(float)height)*2.0f-1.0f;
 702:Core/Src/main.c ****             float xi = 0.0f, yi = 0.0f;
 703:Core/Src/main.c ****             int iterations = 0;
 704:Core/Src/main.c **** 
 705:Core/Src/main.c ****             while(iterations < max_iterations && (xi * xi + yi * yi) <= 4.0f) {
 706:Core/Src/main.c ****                 float temp = xi * xi - yi * yi;
 1469              		.loc 1 706 17 is_stmt 1 view .LVU366
 1470              		.loc 1 706 23 is_stmt 0 view .LVU367
 1471 0026 76EEC66A 		vsub.f32	s13, s13, s12
 1472              	.LVL144:
 707:Core/Src/main.c ****                 yi = 2.0f * xi * yi + y0;
 1473              		.loc 1 707 17 is_stmt 1 view .LVU368
 1474              		.loc 1 707 27 is_stmt 0 view .LVU369
 1475 002a 77EEA77A 		vadd.f32	s15, s15, s15
 1476              	.LVL145:
 1477              		.loc 1 707 32 view .LVU370
 1478 002e 27EE877A 		vmul.f32	s14, s15, s14
 1479              	.LVL146:
 1480              		.loc 1 707 20 view .LVU371
 1481 0032 37EE247A 		vadd.f32	s14, s14, s9
 1482              	.LVL147:
 708:Core/Src/main.c ****                 xi = temp + x0;
 1483              		.loc 1 708 17 is_stmt 1 view .LVU372
 1484              		.loc 1 708 20 is_stmt 0 view .LVU373
 1485 0036 74EE267A 		vadd.f32	s15, s8, s13
 1486              	.LVL148:
 709:Core/Src/main.c ****                 iterations++;
 1487              		.loc 1 709 17 is_stmt 1 view .LVU374
 1488              		.loc 1 709 27 is_stmt 0 view .LVU375
 1489 003a 0133     		adds	r3, r3, #1
 1490              	.LVL149:
 1491              	.L71:
 1492              		.loc 1 709 27 view .LVU376
 1493              	.LBE47:
 705:Core/Src/main.c ****                 float temp = xi * xi - yi * yi;
 1494              		.loc 1 705 47 is_stmt 1 view .LVU377
 1495 003c A342     		cmp	r3, r4
 1496 003e 0CDA     		bge	.L72
 705:Core/Src/main.c ****                 float temp = xi * xi - yi * yi;
 1497              		.loc 1 705 54 is_stmt 0 discriminator 1 view .LVU378
 1498 0040 67EEA76A 		vmul.f32	s13, s15, s15
 705:Core/Src/main.c ****                 float temp = xi * xi - yi * yi;
 1499              		.loc 1 705 64 discriminator 1 view .LVU379
 1500 0044 27EE076A 		vmul.f32	s12, s14, s14
 705:Core/Src/main.c ****                 float temp = xi * xi - yi * yi;
 1501              		.loc 1 705 59 discriminator 1 view .LVU380
 1502 0048 36EE865A 		vadd.f32	s10, s13, s12
 705:Core/Src/main.c ****                 float temp = xi * xi - yi * yi;
 1503              		.loc 1 705 47 discriminator 1 view .LVU381
 1504 004c F1EE005A 		vmov.f32	s11, #4.0e+0
 1505 0050 B4EEE55A 		vcmpe.f32	s10, s11
 1506 0054 F1EE10FA 		vmrs	APSR_nzcv, FPSCR
 1507 0058 E5D9     		bls	.L73
ARM GAS  C:\Users\BANELE~1\AppData\Local\Temp\cc8Zst6e.s 			page 43


 1508              	.L72:
 710:Core/Src/main.c ****             }
 711:Core/Src/main.c ****             mandelbrot_sum += iterations;
 1509              		.loc 1 711 13 is_stmt 1 view .LVU382
 1510              		.loc 1 711 28 is_stmt 0 view .LVU383
 1511 005a 5D19     		adds	r5, r3, r5
 1512              	.LVL150:
 1513              		.loc 1 711 28 view .LVU384
 1514 005c 47EBE377 		adc	r7, r7, r3, asr #31
 1515              	.LVL151:
 1516              		.loc 1 711 28 view .LVU385
 1517              	.LBE46:
 699:Core/Src/main.c ****             float x0 = ((float)x/(float)width)*3.5f-2.5f;
 1518              		.loc 1 699 36 is_stmt 1 discriminator 2 view .LVU386
 1519 0060 0132     		adds	r2, r2, #1
 1520              	.LVL152:
 1521              	.L70:
 699:Core/Src/main.c ****             float x0 = ((float)x/(float)width)*3.5f-2.5f;
 1522              		.loc 1 699 26 discriminator 1 view .LVU387
 1523 0062 B242     		cmp	r2, r6
 1524 0064 23DA     		bge	.L77
 1525              	.LBB48:
 700:Core/Src/main.c ****             float y0 = ((float)y/(float)height)*2.0f-1.0f;
 1526              		.loc 1 700 13 view .LVU388
 700:Core/Src/main.c ****             float y0 = ((float)y/(float)height)*2.0f-1.0f;
 1527              		.loc 1 700 25 is_stmt 0 view .LVU389
 1528 0066 07EE902A 		vmov	s15, r2	@ int
 1529 006a F8EEE77A 		vcvt.f32.s32	s15, s15
 700:Core/Src/main.c ****             float y0 = ((float)y/(float)height)*2.0f-1.0f;
 1530              		.loc 1 700 34 view .LVU390
 1531 006e 07EE106A 		vmov	s14, r6	@ int
 1532 0072 B8EEC77A 		vcvt.f32.s32	s14, s14
 700:Core/Src/main.c ****             float y0 = ((float)y/(float)height)*2.0f-1.0f;
 1533              		.loc 1 700 33 view .LVU391
 1534 0076 87EE874A 		vdiv.f32	s8, s15, s14
 700:Core/Src/main.c ****             float y0 = ((float)y/(float)height)*2.0f-1.0f;
 1535              		.loc 1 700 47 view .LVU392
 1536 007a F0EE0C7A 		vmov.f32	s15, #3.5e+0
 1537 007e 24EE274A 		vmul.f32	s8, s8, s15
 700:Core/Src/main.c ****             float y0 = ((float)y/(float)height)*2.0f-1.0f;
 1538              		.loc 1 700 19 view .LVU393
 1539 0082 F0EE047A 		vmov.f32	s15, #2.5e+0
 1540 0086 34EE674A 		vsub.f32	s8, s8, s15
 1541              	.LVL153:
 701:Core/Src/main.c ****             float xi = 0.0f, yi = 0.0f;
 1542              		.loc 1 701 13 is_stmt 1 view .LVU394
 701:Core/Src/main.c ****             float xi = 0.0f, yi = 0.0f;
 1543              		.loc 1 701 25 is_stmt 0 view .LVU395
 1544 008a F8EEC87A 		vcvt.f32.s32	s15, s16
 701:Core/Src/main.c ****             float xi = 0.0f, yi = 0.0f;
 1545              		.loc 1 701 34 view .LVU396
 1546 008e B8EEE87A 		vcvt.f32.s32	s14, s17
 701:Core/Src/main.c ****             float xi = 0.0f, yi = 0.0f;
 1547              		.loc 1 701 33 view .LVU397
 1548 0092 C7EE874A 		vdiv.f32	s9, s15, s14
 701:Core/Src/main.c ****             float xi = 0.0f, yi = 0.0f;
 1549              		.loc 1 701 48 view .LVU398
ARM GAS  C:\Users\BANELE~1\AppData\Local\Temp\cc8Zst6e.s 			page 44


 1550 0096 74EEA44A 		vadd.f32	s9, s9, s9
 701:Core/Src/main.c ****             float xi = 0.0f, yi = 0.0f;
 1551              		.loc 1 701 19 view .LVU399
 1552 009a F7EE007A 		vmov.f32	s15, #1.0e+0
 1553 009e 74EEE74A 		vsub.f32	s9, s9, s15
 1554              	.LVL154:
 702:Core/Src/main.c ****             int iterations = 0;
 1555              		.loc 1 702 13 is_stmt 1 view .LVU400
 703:Core/Src/main.c **** 
 1556              		.loc 1 703 13 view .LVU401
 705:Core/Src/main.c ****                 float temp = xi * xi - yi * yi;
 1557              		.loc 1 705 13 view .LVU402
 703:Core/Src/main.c **** 
 1558              		.loc 1 703 17 is_stmt 0 view .LVU403
 1559 00a2 0023     		movs	r3, #0
 702:Core/Src/main.c ****             int iterations = 0;
 1560              		.loc 1 702 30 view .LVU404
 1561 00a4 9FED0F7A 		vldr.32	s14, .L80+8
 702:Core/Src/main.c ****             int iterations = 0;
 1562              		.loc 1 702 19 view .LVU405
 1563 00a8 F0EE477A 		vmov.f32	s15, s14
 705:Core/Src/main.c ****                 float temp = xi * xi - yi * yi;
 1564              		.loc 1 705 18 view .LVU406
 1565 00ac C6E7     		b	.L71
 1566              	.LVL155:
 1567              	.L77:
 705:Core/Src/main.c ****                 float temp = xi * xi - yi * yi;
 1568              		.loc 1 705 18 view .LVU407
 1569              	.LBE48:
 1570              	.LBE45:
 693:Core/Src/main.c ****         // Progress indicator
 1571              		.loc 1 693 34 is_stmt 1 discriminator 2 view .LVU408
 1572 00ae 18EE103A 		vmov	r3, s16	@ int
 1573 00b2 0133     		adds	r3, r3, #1
 1574 00b4 08EE103A 		vmov	s16, r3	@ int
 1575              	.LVL156:
 1576              	.L68:
 693:Core/Src/main.c ****         // Progress indicator
 1577              		.loc 1 693 23 discriminator 1 view .LVU409
 1578 00b8 18EE103A 		vmov	r3, s16	@ int
 1579 00bc 18EE902A 		vmov	r2, s17	@ int
 1580 00c0 9342     		cmp	r3, r2
 1581 00c2 06DA     		bge	.L78
 1582              	.LVL157:
 695:Core/Src/main.c ****             HAL_GPIO_TogglePin(GPIOB, GPIO_PIN_6);
 1583              		.loc 1 695 9 view .LVU410
 695:Core/Src/main.c ****             HAL_GPIO_TogglePin(GPIOB, GPIO_PIN_6);
 1584              		.loc 1 695 12 is_stmt 0 view .LVU411
 1585 00c4 18EE103A 		vmov	r3, s16	@ int
 1586 00c8 13F00F0F 		tst	r3, #15
 1587 00cc A6D0     		beq	.L79
 1588              	.LVL158:
 1589              	.L69:
 699:Core/Src/main.c ****             float x0 = ((float)x/(float)width)*3.5f-2.5f;
 1590              		.loc 1 699 9 is_stmt 1 view .LVU412
 1591              	.LBB49:
 699:Core/Src/main.c ****             float x0 = ((float)x/(float)width)*3.5f-2.5f;
ARM GAS  C:\Users\BANELE~1\AppData\Local\Temp\cc8Zst6e.s 			page 45


 1592              		.loc 1 699 13 view .LVU413
 699:Core/Src/main.c ****             float x0 = ((float)x/(float)width)*3.5f-2.5f;
 1593              		.loc 1 699 17 is_stmt 0 view .LVU414
 1594 00ce 0022     		movs	r2, #0
 699:Core/Src/main.c ****             float x0 = ((float)x/(float)width)*3.5f-2.5f;
 1595              		.loc 1 699 9 view .LVU415
 1596 00d0 C7E7     		b	.L70
 1597              	.LVL159:
 1598              	.L78:
 699:Core/Src/main.c ****             float x0 = ((float)x/(float)width)*3.5f-2.5f;
 1599              		.loc 1 699 9 view .LVU416
 1600              	.LBE49:
 1601              	.LBE50:
 712:Core/Src/main.c ****         }
 713:Core/Src/main.c ****     }
 714:Core/Src/main.c ****     return mandelbrot_sum;
 1602              		.loc 1 714 5 is_stmt 1 view .LVU417
 715:Core/Src/main.c **** }
 1603              		.loc 1 715 1 is_stmt 0 view .LVU418
 1604 00d2 2846     		mov	r0, r5
 1605 00d4 3946     		mov	r1, r7
 1606 00d6 BDEC028B 		vldm	sp!, {d8}
 1607              	.LCFI20:
 1608              		.cfi_restore 80
 1609              		.cfi_restore 81
 1610              		.cfi_def_cfa_offset 24
 1611 00da F8BD     		pop	{r3, r4, r5, r6, r7, pc}
 1612              	.LVL160:
 1613              	.L81:
 1614              		.loc 1 715 1 view .LVU419
 1615              		.align	2
 1616              	.L80:
 1617 00dc 00000000 		.word	0
 1618 00e0 00040240 		.word	1073873920
 1619 00e4 00000000 		.word	0
 1620              		.cfi_endproc
 1621              	.LFE147:
 1623              		.section	.text.calculate_mandelbrot_double_fpu,"ax",%progbits
 1624              		.align	1
 1625              		.global	calculate_mandelbrot_double_fpu
 1626              		.syntax unified
 1627              		.thumb
 1628              		.thumb_func
 1630              	calculate_mandelbrot_double_fpu:
 1631              	.LVL161:
 1632              	.LFB148:
 716:Core/Src/main.c **** // Double implementation assuming FPU enabled
 717:Core/Src/main.c **** uint64_t calculate_mandelbrot_double_fpu(int width, int height, int max_iterations) {
 1633              		.loc 1 717 85 is_stmt 1 view -0
 1634              		.cfi_startproc
 1635              		@ args = 0, pretend = 0, frame = 56
 1636              		@ frame_needed = 0, uses_anonymous_args = 0
 1637              		.loc 1 717 85 is_stmt 0 view .LVU421
 1638 0000 2DE9F04F 		push	{r4, r5, r6, r7, r8, r9, r10, fp, lr}
 1639              	.LCFI21:
 1640              		.cfi_def_cfa_offset 36
 1641              		.cfi_offset 4, -36
ARM GAS  C:\Users\BANELE~1\AppData\Local\Temp\cc8Zst6e.s 			page 46


 1642              		.cfi_offset 5, -32
 1643              		.cfi_offset 6, -28
 1644              		.cfi_offset 7, -24
 1645              		.cfi_offset 8, -20
 1646              		.cfi_offset 9, -16
 1647              		.cfi_offset 10, -12
 1648              		.cfi_offset 11, -8
 1649              		.cfi_offset 14, -4
 1650 0004 8FB0     		sub	sp, sp, #60
 1651              	.LCFI22:
 1652              		.cfi_def_cfa_offset 96
 1653 0006 0C91     		str	r1, [sp, #48]
 718:Core/Src/main.c ****     uint64_t mandelbrot_sum = 0;
 1654              		.loc 1 718 5 is_stmt 1 view .LVU422
 1655              	.LVL162:
 719:Core/Src/main.c ****     for (int y = 0; y < height; y++) {
 1656              		.loc 1 719 5 view .LVU423
 1657              	.LBB51:
 1658              		.loc 1 719 10 view .LVU424
 1659              		.loc 1 719 14 is_stmt 0 view .LVU425
 1660 0008 4FF0000B 		mov	fp, #0
 1661              	.LBE51:
 718:Core/Src/main.c ****     uint64_t mandelbrot_sum = 0;
 1662              		.loc 1 718 14 view .LVU426
 1663 000c DA46     		mov	r10, fp
 1664 000e CDF820B0 		str	fp, [sp, #32]
 1665 0012 0D92     		str	r2, [sp, #52]
 1666 0014 CDF824B0 		str	fp, [sp, #36]
 1667 0018 8346     		mov	fp, r0
 1668              	.LBB57:
 1669              		.loc 1 719 5 view .LVU427
 1670 001a 93E0     		b	.L83
 1671              	.LVL163:
 1672              	.L94:
 720:Core/Src/main.c ****         // Progress indicator
 721:Core/Src/main.c ****         if ((y & 15) == 0) {
 722:Core/Src/main.c ****             HAL_GPIO_TogglePin(GPIOB, GPIO_PIN_6);
 1673              		.loc 1 722 13 is_stmt 1 view .LVU428
 1674 001c 4021     		movs	r1, #64
 1675 001e 5348     		ldr	r0, .L95
 1676 0020 FFF7FEFF 		bl	HAL_GPIO_TogglePin
 1677              	.LVL164:
 1678 0024 95E0     		b	.L84
 1679              	.LVL165:
 1680              	.L88:
 1681              	.LBB52:
 1682              	.LBB53:
 1683              	.LBB54:
 723:Core/Src/main.c ****         }
 724:Core/Src/main.c ****         
 725:Core/Src/main.c ****         for(int x = 0; x < width; x++) {
 726:Core/Src/main.c ****             double x0 = ((double)x/(double)width)*3.5-2.5;
 727:Core/Src/main.c ****             double y0 = ((double)y/(double)height)*2.0-1.0;
 728:Core/Src/main.c ****             double xi = 0.0, yi = 0.0;
 729:Core/Src/main.c ****             int iterations = 0;
 730:Core/Src/main.c **** 
 731:Core/Src/main.c ****             while(iterations < max_iterations && (xi * xi + yi * yi) <= 4.0) {
ARM GAS  C:\Users\BANELE~1\AppData\Local\Temp\cc8Zst6e.s 			page 47


 732:Core/Src/main.c ****                 double temp = xi * xi - yi * yi;
 1684              		.loc 1 732 17 view .LVU429
 1685              		.loc 1 732 24 is_stmt 0 view .LVU430
 1686 0026 4246     		mov	r2, r8
 1687 0028 4B46     		mov	r3, r9
 1688 002a DDE90001 		ldrd	r0, [sp]
 1689 002e FFF7FEFF 		bl	__aeabi_dsub
 1690              	.LVL166:
 1691 0032 8046     		mov	r8, r0
 1692 0034 8946     		mov	r9, r1
 1693              	.LVL167:
 733:Core/Src/main.c ****                 yi = 2.0 * xi * yi + y0;
 1694              		.loc 1 733 17 is_stmt 1 view .LVU431
 1695              		.loc 1 733 26 is_stmt 0 view .LVU432
 1696 0036 2246     		mov	r2, r4
 1697 0038 2B46     		mov	r3, r5
 1698 003a 2046     		mov	r0, r4
 1699 003c 2946     		mov	r1, r5
 1700 003e FFF7FEFF 		bl	__aeabi_dadd
 1701              	.LVL168:
 1702              		.loc 1 733 31 view .LVU433
 1703 0042 3246     		mov	r2, r6
 1704 0044 3B46     		mov	r3, r7
 1705 0046 FFF7FEFF 		bl	__aeabi_dmul
 1706              	.LVL169:
 1707              		.loc 1 733 20 view .LVU434
 1708 004a DDE90423 		ldrd	r2, [sp, #16]
 1709 004e FFF7FEFF 		bl	__aeabi_dadd
 1710              	.LVL170:
 1711 0052 0646     		mov	r6, r0
 1712              	.LVL171:
 1713              		.loc 1 733 20 view .LVU435
 1714 0054 0F46     		mov	r7, r1
 1715              	.LVL172:
 734:Core/Src/main.c ****                 xi = temp + x0;
 1716              		.loc 1 734 17 is_stmt 1 view .LVU436
 1717              		.loc 1 734 20 is_stmt 0 view .LVU437
 1718 0056 4246     		mov	r2, r8
 1719 0058 4B46     		mov	r3, r9
 1720 005a DDE90201 		ldrd	r0, [sp, #8]
 1721 005e FFF7FEFF 		bl	__aeabi_dadd
 1722              	.LVL173:
 1723 0062 0446     		mov	r4, r0
 1724              	.LVL174:
 1725              		.loc 1 734 20 view .LVU438
 1726 0064 0D46     		mov	r5, r1
 1727              	.LVL175:
 735:Core/Src/main.c ****                 iterations++;
 1728              		.loc 1 735 17 is_stmt 1 view .LVU439
 1729              		.loc 1 735 27 is_stmt 0 view .LVU440
 1730 0066 0AF1010A 		add	r10, r10, #1
 1731              	.LVL176:
 1732              	.L86:
 1733              		.loc 1 735 27 view .LVU441
 1734              	.LBE54:
 731:Core/Src/main.c ****                 double temp = xi * xi - yi * yi;
 1735              		.loc 1 731 47 is_stmt 1 view .LVU442
ARM GAS  C:\Users\BANELE~1\AppData\Local\Temp\cc8Zst6e.s 			page 48


 1736 006a DA45     		cmp	r10, fp
 1737 006c 1BDA     		bge	.L87
 731:Core/Src/main.c ****                 double temp = xi * xi - yi * yi;
 1738              		.loc 1 731 54 is_stmt 0 discriminator 1 view .LVU443
 1739 006e 2246     		mov	r2, r4
 1740 0070 2B46     		mov	r3, r5
 1741 0072 2046     		mov	r0, r4
 1742 0074 2946     		mov	r1, r5
 1743 0076 FFF7FEFF 		bl	__aeabi_dmul
 1744              	.LVL177:
 1745 007a CDE90001 		strd	r0, [sp]
 731:Core/Src/main.c ****                 double temp = xi * xi - yi * yi;
 1746              		.loc 1 731 64 discriminator 1 view .LVU444
 1747 007e 3246     		mov	r2, r6
 1748 0080 3B46     		mov	r3, r7
 1749 0082 3046     		mov	r0, r6
 1750 0084 3946     		mov	r1, r7
 1751 0086 FFF7FEFF 		bl	__aeabi_dmul
 1752              	.LVL178:
 1753 008a 8046     		mov	r8, r0
 1754 008c 8946     		mov	r9, r1
 731:Core/Src/main.c ****                 double temp = xi * xi - yi * yi;
 1755              		.loc 1 731 59 discriminator 1 view .LVU445
 1756 008e 0246     		mov	r2, r0
 1757 0090 0B46     		mov	r3, r1
 1758 0092 DDE90001 		ldrd	r0, [sp]
 1759 0096 FFF7FEFF 		bl	__aeabi_dadd
 1760              	.LVL179:
 731:Core/Src/main.c ****                 double temp = xi * xi - yi * yi;
 1761              		.loc 1 731 47 discriminator 1 view .LVU446
 1762 009a 0022     		movs	r2, #0
 1763 009c 344B     		ldr	r3, .L95+4
 1764 009e FFF7FEFF 		bl	__aeabi_dcmple
 1765              	.LVL180:
 1766 00a2 0028     		cmp	r0, #0
 1767 00a4 BFD1     		bne	.L88
 1768              	.L87:
 736:Core/Src/main.c ****             }
 737:Core/Src/main.c ****             mandelbrot_sum += iterations;
 1769              		.loc 1 737 28 view .LVU447
 1770 00a6 DDF828B0 		ldr	fp, [sp, #40]
 1771              		.loc 1 737 13 is_stmt 1 view .LVU448
 1772              		.loc 1 737 28 is_stmt 0 view .LVU449
 1773 00aa 099B     		ldr	r3, [sp, #36]
 1774 00ac 1AEB0302 		adds	r2, r10, r3
 1775 00b0 0992     		str	r2, [sp, #36]
 1776              	.LVL181:
 1777              		.loc 1 737 28 view .LVU450
 1778 00b2 089B     		ldr	r3, [sp, #32]
 1779 00b4 43EBEA73 		adc	r3, r3, r10, asr #31
 1780 00b8 0893     		str	r3, [sp, #32]
 1781              	.LVL182:
 1782              		.loc 1 737 28 view .LVU451
 1783              	.LBE53:
 725:Core/Src/main.c ****             double x0 = ((double)x/(double)width)*3.5-2.5;
 1784              		.loc 1 725 36 is_stmt 1 discriminator 2 view .LVU452
 1785 00ba 079B     		ldr	r3, [sp, #28]
ARM GAS  C:\Users\BANELE~1\AppData\Local\Temp\cc8Zst6e.s 			page 49


 1786              	.LVL183:
 725:Core/Src/main.c ****             double x0 = ((double)x/(double)width)*3.5-2.5;
 1787              		.loc 1 725 36 is_stmt 0 discriminator 2 view .LVU453
 1788 00bc 0133     		adds	r3, r3, #1
 1789 00be 0793     		str	r3, [sp, #28]
 1790              	.LVL184:
 1791              	.L85:
 725:Core/Src/main.c ****             double x0 = ((double)x/(double)width)*3.5-2.5;
 1792              		.loc 1 725 26 is_stmt 1 discriminator 1 view .LVU454
 1793 00c0 079B     		ldr	r3, [sp, #28]
 1794 00c2 5B45     		cmp	r3, fp
 1795 00c4 3ADA     		bge	.L92
 1796              	.LBB55:
 726:Core/Src/main.c ****             double y0 = ((double)y/(double)height)*2.0-1.0;
 1797              		.loc 1 726 13 view .LVU455
 726:Core/Src/main.c ****             double y0 = ((double)y/(double)height)*2.0-1.0;
 1798              		.loc 1 726 26 is_stmt 0 view .LVU456
 1799 00c6 0798     		ldr	r0, [sp, #28]
 1800 00c8 FFF7FEFF 		bl	__aeabi_i2d
 1801              	.LVL185:
 1802 00cc 0446     		mov	r4, r0
 1803 00ce 0D46     		mov	r5, r1
 726:Core/Src/main.c ****             double y0 = ((double)y/(double)height)*2.0-1.0;
 1804              		.loc 1 726 36 view .LVU457
 1805 00d0 5846     		mov	r0, fp
 1806 00d2 FFF7FEFF 		bl	__aeabi_i2d
 1807              	.LVL186:
 1808 00d6 0246     		mov	r2, r0
 1809 00d8 0B46     		mov	r3, r1
 726:Core/Src/main.c ****             double y0 = ((double)y/(double)height)*2.0-1.0;
 1810              		.loc 1 726 35 view .LVU458
 1811 00da 2046     		mov	r0, r4
 1812 00dc 2946     		mov	r1, r5
 1813 00de FFF7FEFF 		bl	__aeabi_ddiv
 1814              	.LVL187:
 726:Core/Src/main.c ****             double y0 = ((double)y/(double)height)*2.0-1.0;
 1815              		.loc 1 726 50 view .LVU459
 1816 00e2 0022     		movs	r2, #0
 1817 00e4 234B     		ldr	r3, .L95+8
 1818 00e6 FFF7FEFF 		bl	__aeabi_dmul
 1819              	.LVL188:
 726:Core/Src/main.c ****             double y0 = ((double)y/(double)height)*2.0-1.0;
 1820              		.loc 1 726 20 view .LVU460
 1821 00ea 0022     		movs	r2, #0
 1822 00ec 224B     		ldr	r3, .L95+12
 1823 00ee FFF7FEFF 		bl	__aeabi_dsub
 1824              	.LVL189:
 1825 00f2 CDE90201 		strd	r0, [sp, #8]
 1826              	.LVL190:
 727:Core/Src/main.c ****             double xi = 0.0, yi = 0.0;
 1827              		.loc 1 727 13 is_stmt 1 view .LVU461
 727:Core/Src/main.c ****             double xi = 0.0, yi = 0.0;
 1828              		.loc 1 727 26 is_stmt 0 view .LVU462
 1829 00f6 0B98     		ldr	r0, [sp, #44]
 1830              	.LVL191:
 727:Core/Src/main.c ****             double xi = 0.0, yi = 0.0;
 1831              		.loc 1 727 26 view .LVU463
ARM GAS  C:\Users\BANELE~1\AppData\Local\Temp\cc8Zst6e.s 			page 50


 1832 00f8 FFF7FEFF 		bl	__aeabi_i2d
 1833              	.LVL192:
 1834 00fc 0446     		mov	r4, r0
 1835 00fe 0D46     		mov	r5, r1
 727:Core/Src/main.c ****             double xi = 0.0, yi = 0.0;
 1836              		.loc 1 727 36 view .LVU464
 1837 0100 0C98     		ldr	r0, [sp, #48]
 1838 0102 FFF7FEFF 		bl	__aeabi_i2d
 1839              	.LVL193:
 1840 0106 0246     		mov	r2, r0
 1841 0108 0B46     		mov	r3, r1
 727:Core/Src/main.c ****             double xi = 0.0, yi = 0.0;
 1842              		.loc 1 727 35 view .LVU465
 1843 010a 2046     		mov	r0, r4
 1844 010c 2946     		mov	r1, r5
 1845 010e FFF7FEFF 		bl	__aeabi_ddiv
 1846              	.LVL194:
 1847 0112 0246     		mov	r2, r0
 1848 0114 0B46     		mov	r3, r1
 727:Core/Src/main.c ****             double xi = 0.0, yi = 0.0;
 1849              		.loc 1 727 51 view .LVU466
 1850 0116 FFF7FEFF 		bl	__aeabi_dadd
 1851              	.LVL195:
 727:Core/Src/main.c ****             double xi = 0.0, yi = 0.0;
 1852              		.loc 1 727 20 view .LVU467
 1853 011a 0022     		movs	r2, #0
 1854 011c 174B     		ldr	r3, .L95+16
 1855 011e FFF7FEFF 		bl	__aeabi_dsub
 1856              	.LVL196:
 1857 0122 CDE90401 		strd	r0, [sp, #16]
 1858              	.LVL197:
 728:Core/Src/main.c ****             int iterations = 0;
 1859              		.loc 1 728 13 is_stmt 1 view .LVU468
 729:Core/Src/main.c **** 
 1860              		.loc 1 729 13 view .LVU469
 731:Core/Src/main.c ****                 double temp = xi * xi - yi * yi;
 1861              		.loc 1 731 13 view .LVU470
 729:Core/Src/main.c **** 
 1862              		.loc 1 729 17 is_stmt 0 view .LVU471
 1863 0126 4FF0000A 		mov	r10, #0
 728:Core/Src/main.c ****             int iterations = 0;
 1864              		.loc 1 728 30 view .LVU472
 1865 012a 0026     		movs	r6, #0
 1866 012c 0027     		movs	r7, #0
 728:Core/Src/main.c ****             int iterations = 0;
 1867              		.loc 1 728 20 view .LVU473
 1868 012e 3446     		mov	r4, r6
 1869 0130 3D46     		mov	r5, r7
 1870 0132 CDF828B0 		str	fp, [sp, #40]
 1871 0136 DDF834B0 		ldr	fp, [sp, #52]
 731:Core/Src/main.c ****                 double temp = xi * xi - yi * yi;
 1872              		.loc 1 731 18 view .LVU474
 1873 013a 96E7     		b	.L86
 1874              	.LVL198:
 1875              	.L92:
 731:Core/Src/main.c ****                 double temp = xi * xi - yi * yi;
 1876              		.loc 1 731 18 view .LVU475
ARM GAS  C:\Users\BANELE~1\AppData\Local\Temp\cc8Zst6e.s 			page 51


 1877              	.LBE55:
 1878              	.LBE52:
 719:Core/Src/main.c ****         // Progress indicator
 1879              		.loc 1 719 34 discriminator 2 view .LVU476
 1880 013c DDF82CA0 		ldr	r10, [sp, #44]
 719:Core/Src/main.c ****         // Progress indicator
 1881              		.loc 1 719 34 is_stmt 1 discriminator 2 view .LVU477
 1882 0140 0AF1010A 		add	r10, r10, #1
 1883              	.LVL199:
 1884              	.L83:
 719:Core/Src/main.c ****         // Progress indicator
 1885              		.loc 1 719 23 discriminator 1 view .LVU478
 1886 0144 0C9B     		ldr	r3, [sp, #48]
 1887 0146 9A45     		cmp	r10, r3
 1888 0148 08DA     		bge	.L93
 721:Core/Src/main.c ****             HAL_GPIO_TogglePin(GPIOB, GPIO_PIN_6);
 1889              		.loc 1 721 9 view .LVU479
 721:Core/Src/main.c ****             HAL_GPIO_TogglePin(GPIOB, GPIO_PIN_6);
 1890              		.loc 1 721 12 is_stmt 0 view .LVU480
 1891 014a 1AF00F0F 		tst	r10, #15
 1892 014e 3FF465AF 		beq	.L94
 1893              	.L84:
 725:Core/Src/main.c ****             double x0 = ((double)x/(double)width)*3.5-2.5;
 1894              		.loc 1 725 9 is_stmt 1 view .LVU481
 1895              	.LBB56:
 725:Core/Src/main.c ****             double x0 = ((double)x/(double)width)*3.5-2.5;
 1896              		.loc 1 725 13 view .LVU482
 1897              	.LVL200:
 725:Core/Src/main.c ****             double x0 = ((double)x/(double)width)*3.5-2.5;
 1898              		.loc 1 725 17 is_stmt 0 view .LVU483
 1899 0152 0023     		movs	r3, #0
 1900 0154 0793     		str	r3, [sp, #28]
 1901 0156 CDF82CA0 		str	r10, [sp, #44]
 725:Core/Src/main.c ****             double x0 = ((double)x/(double)width)*3.5-2.5;
 1902              		.loc 1 725 9 view .LVU484
 1903 015a B1E7     		b	.L85
 1904              	.LVL201:
 1905              	.L93:
 725:Core/Src/main.c ****             double x0 = ((double)x/(double)width)*3.5-2.5;
 1906              		.loc 1 725 9 view .LVU485
 1907              	.LBE56:
 1908              	.LBE57:
 738:Core/Src/main.c ****         }
 739:Core/Src/main.c ****     }
 740:Core/Src/main.c ****     return mandelbrot_sum;
 741:Core/Src/main.c **** }
 1909              		.loc 1 741 1 view .LVU486
 1910 015c DDF824A0 		ldr	r10, [sp, #36]
 1911              	.LVL202:
 740:Core/Src/main.c **** }
 1912              		.loc 1 740 5 is_stmt 1 view .LVU487
 1913              		.loc 1 741 1 is_stmt 0 view .LVU488
 1914 0160 5046     		mov	r0, r10
 1915 0162 0899     		ldr	r1, [sp, #32]
 1916 0164 0FB0     		add	sp, sp, #60
 1917              	.LCFI23:
 1918              		.cfi_def_cfa_offset 36
ARM GAS  C:\Users\BANELE~1\AppData\Local\Temp\cc8Zst6e.s 			page 52


 1919              		@ sp needed
 1920 0166 BDE8F08F 		pop	{r4, r5, r6, r7, r8, r9, r10, fp, pc}
 1921              	.LVL203:
 1922              	.L96:
 1923              		.loc 1 741 1 view .LVU489
 1924 016a 00BF     		.align	2
 1925              	.L95:
 1926 016c 00040240 		.word	1073873920
 1927 0170 00001040 		.word	1074790400
 1928 0174 00000C40 		.word	1074528256
 1929 0178 00000440 		.word	1074003968
 1930 017c 0000F03F 		.word	1072693248
 1931              		.cfi_endproc
 1932              	.LFE148:
 1934              		.section	.text.enable_fpu,"ax",%progbits
 1935              		.align	1
 1936              		.global	enable_fpu
 1937              		.syntax unified
 1938              		.thumb
 1939              		.thumb_func
 1941              	enable_fpu:
 1942              	.LFB149:
 742:Core/Src/main.c **** 
 743:Core/Src/main.c **** // FPU control functions
 744:Core/Src/main.c **** void enable_fpu(void) {
 1943              		.loc 1 744 23 is_stmt 1 view -0
 1944              		.cfi_startproc
 1945              		@ args = 0, pretend = 0, frame = 0
 1946              		@ frame_needed = 0, uses_anonymous_args = 0
 1947              		@ link register save eliminated.
 745:Core/Src/main.c ****     // Enable CP10 and CP11 (FPU coprocessors)
 746:Core/Src/main.c ****     SCB->CPACR |= ((3UL << 10*2)|(3UL << 11*2));
 1948              		.loc 1 746 5 view .LVU491
 1949              		.loc 1 746 8 is_stmt 0 view .LVU492
 1950 0000 054A     		ldr	r2, .L98
 1951 0002 D2F88830 		ldr	r3, [r2, #136]
 1952              		.loc 1 746 16 view .LVU493
 1953 0006 43F47003 		orr	r3, r3, #15728640
 1954 000a C2F88830 		str	r3, [r2, #136]
 747:Core/Src/main.c ****     __DSB();
 1955              		.loc 1 747 5 is_stmt 1 view .LVU494
 1956              	.LBB58:
 1957              	.LBI58:
 1958              		.file 2 "Drivers/CMSIS/Include/cmsis_gcc.h"
   1:Drivers/CMSIS/Include/cmsis_gcc.h **** /**************************************************************************//**
   2:Drivers/CMSIS/Include/cmsis_gcc.h ****  * @file     cmsis_gcc.h
   3:Drivers/CMSIS/Include/cmsis_gcc.h ****  * @brief    CMSIS compiler GCC header file
   4:Drivers/CMSIS/Include/cmsis_gcc.h ****  * @version  V5.4.1
   5:Drivers/CMSIS/Include/cmsis_gcc.h ****  * @date     27. May 2021
   6:Drivers/CMSIS/Include/cmsis_gcc.h ****  ******************************************************************************/
   7:Drivers/CMSIS/Include/cmsis_gcc.h **** /*
   8:Drivers/CMSIS/Include/cmsis_gcc.h ****  * Copyright (c) 2009-2021 Arm Limited. All rights reserved.
   9:Drivers/CMSIS/Include/cmsis_gcc.h ****  *
  10:Drivers/CMSIS/Include/cmsis_gcc.h ****  * SPDX-License-Identifier: Apache-2.0
  11:Drivers/CMSIS/Include/cmsis_gcc.h ****  *
  12:Drivers/CMSIS/Include/cmsis_gcc.h ****  * Licensed under the Apache License, Version 2.0 (the License); you may
  13:Drivers/CMSIS/Include/cmsis_gcc.h ****  * not use this file except in compliance with the License.
ARM GAS  C:\Users\BANELE~1\AppData\Local\Temp\cc8Zst6e.s 			page 53


  14:Drivers/CMSIS/Include/cmsis_gcc.h ****  * You may obtain a copy of the License at
  15:Drivers/CMSIS/Include/cmsis_gcc.h ****  *
  16:Drivers/CMSIS/Include/cmsis_gcc.h ****  * www.apache.org/licenses/LICENSE-2.0
  17:Drivers/CMSIS/Include/cmsis_gcc.h ****  *
  18:Drivers/CMSIS/Include/cmsis_gcc.h ****  * Unless required by applicable law or agreed to in writing, software
  19:Drivers/CMSIS/Include/cmsis_gcc.h ****  * distributed under the License is distributed on an AS IS BASIS, WITHOUT
  20:Drivers/CMSIS/Include/cmsis_gcc.h ****  * WARRANTIES OR CONDITIONS OF ANY KIND, either express or implied.
  21:Drivers/CMSIS/Include/cmsis_gcc.h ****  * See the License for the specific language governing permissions and
  22:Drivers/CMSIS/Include/cmsis_gcc.h ****  * limitations under the License.
  23:Drivers/CMSIS/Include/cmsis_gcc.h ****  */
  24:Drivers/CMSIS/Include/cmsis_gcc.h **** 
  25:Drivers/CMSIS/Include/cmsis_gcc.h **** #ifndef __CMSIS_GCC_H
  26:Drivers/CMSIS/Include/cmsis_gcc.h **** #define __CMSIS_GCC_H
  27:Drivers/CMSIS/Include/cmsis_gcc.h **** 
  28:Drivers/CMSIS/Include/cmsis_gcc.h **** /* ignore some GCC warnings */
  29:Drivers/CMSIS/Include/cmsis_gcc.h **** #pragma GCC diagnostic push
  30:Drivers/CMSIS/Include/cmsis_gcc.h **** #pragma GCC diagnostic ignored "-Wsign-conversion"
  31:Drivers/CMSIS/Include/cmsis_gcc.h **** #pragma GCC diagnostic ignored "-Wconversion"
  32:Drivers/CMSIS/Include/cmsis_gcc.h **** #pragma GCC diagnostic ignored "-Wunused-parameter"
  33:Drivers/CMSIS/Include/cmsis_gcc.h **** 
  34:Drivers/CMSIS/Include/cmsis_gcc.h **** /* Fallback for __has_builtin */
  35:Drivers/CMSIS/Include/cmsis_gcc.h **** #ifndef __has_builtin
  36:Drivers/CMSIS/Include/cmsis_gcc.h ****   #define __has_builtin(x) (0)
  37:Drivers/CMSIS/Include/cmsis_gcc.h **** #endif
  38:Drivers/CMSIS/Include/cmsis_gcc.h **** 
  39:Drivers/CMSIS/Include/cmsis_gcc.h **** /* CMSIS compiler specific defines */
  40:Drivers/CMSIS/Include/cmsis_gcc.h **** #ifndef   __ASM
  41:Drivers/CMSIS/Include/cmsis_gcc.h ****   #define __ASM                                  __asm
  42:Drivers/CMSIS/Include/cmsis_gcc.h **** #endif
  43:Drivers/CMSIS/Include/cmsis_gcc.h **** #ifndef   __INLINE
  44:Drivers/CMSIS/Include/cmsis_gcc.h ****   #define __INLINE                               inline
  45:Drivers/CMSIS/Include/cmsis_gcc.h **** #endif
  46:Drivers/CMSIS/Include/cmsis_gcc.h **** #ifndef   __STATIC_INLINE
  47:Drivers/CMSIS/Include/cmsis_gcc.h ****   #define __STATIC_INLINE                        static inline
  48:Drivers/CMSIS/Include/cmsis_gcc.h **** #endif
  49:Drivers/CMSIS/Include/cmsis_gcc.h **** #ifndef   __STATIC_FORCEINLINE
  50:Drivers/CMSIS/Include/cmsis_gcc.h ****   #define __STATIC_FORCEINLINE                   __attribute__((always_inline)) static inline
  51:Drivers/CMSIS/Include/cmsis_gcc.h **** #endif
  52:Drivers/CMSIS/Include/cmsis_gcc.h **** #ifndef   __NO_RETURN
  53:Drivers/CMSIS/Include/cmsis_gcc.h ****   #define __NO_RETURN                            __attribute__((__noreturn__))
  54:Drivers/CMSIS/Include/cmsis_gcc.h **** #endif
  55:Drivers/CMSIS/Include/cmsis_gcc.h **** #ifndef   __USED
  56:Drivers/CMSIS/Include/cmsis_gcc.h ****   #define __USED                                 __attribute__((used))
  57:Drivers/CMSIS/Include/cmsis_gcc.h **** #endif
  58:Drivers/CMSIS/Include/cmsis_gcc.h **** #ifndef   __WEAK
  59:Drivers/CMSIS/Include/cmsis_gcc.h ****   #define __WEAK                                 __attribute__((weak))
  60:Drivers/CMSIS/Include/cmsis_gcc.h **** #endif
  61:Drivers/CMSIS/Include/cmsis_gcc.h **** #ifndef   __PACKED
  62:Drivers/CMSIS/Include/cmsis_gcc.h ****   #define __PACKED                               __attribute__((packed, aligned(1)))
  63:Drivers/CMSIS/Include/cmsis_gcc.h **** #endif
  64:Drivers/CMSIS/Include/cmsis_gcc.h **** #ifndef   __PACKED_STRUCT
  65:Drivers/CMSIS/Include/cmsis_gcc.h ****   #define __PACKED_STRUCT                        struct __attribute__((packed, aligned(1)))
  66:Drivers/CMSIS/Include/cmsis_gcc.h **** #endif
  67:Drivers/CMSIS/Include/cmsis_gcc.h **** #ifndef   __PACKED_UNION
  68:Drivers/CMSIS/Include/cmsis_gcc.h ****   #define __PACKED_UNION                         union __attribute__((packed, aligned(1)))
  69:Drivers/CMSIS/Include/cmsis_gcc.h **** #endif
  70:Drivers/CMSIS/Include/cmsis_gcc.h **** #ifndef   __UNALIGNED_UINT32        /* deprecated */
ARM GAS  C:\Users\BANELE~1\AppData\Local\Temp\cc8Zst6e.s 			page 54


  71:Drivers/CMSIS/Include/cmsis_gcc.h ****   #pragma GCC diagnostic push
  72:Drivers/CMSIS/Include/cmsis_gcc.h ****   #pragma GCC diagnostic ignored "-Wpacked"
  73:Drivers/CMSIS/Include/cmsis_gcc.h ****   #pragma GCC diagnostic ignored "-Wattributes"
  74:Drivers/CMSIS/Include/cmsis_gcc.h ****   struct __attribute__((packed)) T_UINT32 { uint32_t v; };
  75:Drivers/CMSIS/Include/cmsis_gcc.h ****   #pragma GCC diagnostic pop
  76:Drivers/CMSIS/Include/cmsis_gcc.h ****   #define __UNALIGNED_UINT32(x)                  (((struct T_UINT32 *)(x))->v)
  77:Drivers/CMSIS/Include/cmsis_gcc.h **** #endif
  78:Drivers/CMSIS/Include/cmsis_gcc.h **** #ifndef   __UNALIGNED_UINT16_WRITE
  79:Drivers/CMSIS/Include/cmsis_gcc.h ****   #pragma GCC diagnostic push
  80:Drivers/CMSIS/Include/cmsis_gcc.h ****   #pragma GCC diagnostic ignored "-Wpacked"
  81:Drivers/CMSIS/Include/cmsis_gcc.h ****   #pragma GCC diagnostic ignored "-Wattributes"
  82:Drivers/CMSIS/Include/cmsis_gcc.h ****   __PACKED_STRUCT T_UINT16_WRITE { uint16_t v; };
  83:Drivers/CMSIS/Include/cmsis_gcc.h ****   #pragma GCC diagnostic pop
  84:Drivers/CMSIS/Include/cmsis_gcc.h ****   #define __UNALIGNED_UINT16_WRITE(addr, val)    (void)((((struct T_UINT16_WRITE *)(void *)(addr))-
  85:Drivers/CMSIS/Include/cmsis_gcc.h **** #endif
  86:Drivers/CMSIS/Include/cmsis_gcc.h **** #ifndef   __UNALIGNED_UINT16_READ
  87:Drivers/CMSIS/Include/cmsis_gcc.h ****   #pragma GCC diagnostic push
  88:Drivers/CMSIS/Include/cmsis_gcc.h ****   #pragma GCC diagnostic ignored "-Wpacked"
  89:Drivers/CMSIS/Include/cmsis_gcc.h ****   #pragma GCC diagnostic ignored "-Wattributes"
  90:Drivers/CMSIS/Include/cmsis_gcc.h ****   __PACKED_STRUCT T_UINT16_READ { uint16_t v; };
  91:Drivers/CMSIS/Include/cmsis_gcc.h ****   #pragma GCC diagnostic pop
  92:Drivers/CMSIS/Include/cmsis_gcc.h ****   #define __UNALIGNED_UINT16_READ(addr)          (((const struct T_UINT16_READ *)(const void *)(add
  93:Drivers/CMSIS/Include/cmsis_gcc.h **** #endif
  94:Drivers/CMSIS/Include/cmsis_gcc.h **** #ifndef   __UNALIGNED_UINT32_WRITE
  95:Drivers/CMSIS/Include/cmsis_gcc.h ****   #pragma GCC diagnostic push
  96:Drivers/CMSIS/Include/cmsis_gcc.h ****   #pragma GCC diagnostic ignored "-Wpacked"
  97:Drivers/CMSIS/Include/cmsis_gcc.h ****   #pragma GCC diagnostic ignored "-Wattributes"
  98:Drivers/CMSIS/Include/cmsis_gcc.h ****   __PACKED_STRUCT T_UINT32_WRITE { uint32_t v; };
  99:Drivers/CMSIS/Include/cmsis_gcc.h ****   #pragma GCC diagnostic pop
 100:Drivers/CMSIS/Include/cmsis_gcc.h ****   #define __UNALIGNED_UINT32_WRITE(addr, val)    (void)((((struct T_UINT32_WRITE *)(void *)(addr))-
 101:Drivers/CMSIS/Include/cmsis_gcc.h **** #endif
 102:Drivers/CMSIS/Include/cmsis_gcc.h **** #ifndef   __UNALIGNED_UINT32_READ
 103:Drivers/CMSIS/Include/cmsis_gcc.h ****   #pragma GCC diagnostic push
 104:Drivers/CMSIS/Include/cmsis_gcc.h ****   #pragma GCC diagnostic ignored "-Wpacked"
 105:Drivers/CMSIS/Include/cmsis_gcc.h ****   #pragma GCC diagnostic ignored "-Wattributes"
 106:Drivers/CMSIS/Include/cmsis_gcc.h ****   __PACKED_STRUCT T_UINT32_READ { uint32_t v; };
 107:Drivers/CMSIS/Include/cmsis_gcc.h ****   #pragma GCC diagnostic pop
 108:Drivers/CMSIS/Include/cmsis_gcc.h ****   #define __UNALIGNED_UINT32_READ(addr)          (((const struct T_UINT32_READ *)(const void *)(add
 109:Drivers/CMSIS/Include/cmsis_gcc.h **** #endif
 110:Drivers/CMSIS/Include/cmsis_gcc.h **** #ifndef   __ALIGNED
 111:Drivers/CMSIS/Include/cmsis_gcc.h ****   #define __ALIGNED(x)                           __attribute__((aligned(x)))
 112:Drivers/CMSIS/Include/cmsis_gcc.h **** #endif
 113:Drivers/CMSIS/Include/cmsis_gcc.h **** #ifndef   __RESTRICT
 114:Drivers/CMSIS/Include/cmsis_gcc.h ****   #define __RESTRICT                             __restrict
 115:Drivers/CMSIS/Include/cmsis_gcc.h **** #endif
 116:Drivers/CMSIS/Include/cmsis_gcc.h **** #ifndef   __COMPILER_BARRIER
 117:Drivers/CMSIS/Include/cmsis_gcc.h ****   #define __COMPILER_BARRIER()                   __ASM volatile("":::"memory")
 118:Drivers/CMSIS/Include/cmsis_gcc.h **** #endif
 119:Drivers/CMSIS/Include/cmsis_gcc.h **** 
 120:Drivers/CMSIS/Include/cmsis_gcc.h **** /* #########################  Startup and Lowlevel Init  ######################## */
 121:Drivers/CMSIS/Include/cmsis_gcc.h **** 
 122:Drivers/CMSIS/Include/cmsis_gcc.h **** #ifndef __PROGRAM_START
 123:Drivers/CMSIS/Include/cmsis_gcc.h **** 
 124:Drivers/CMSIS/Include/cmsis_gcc.h **** /**
 125:Drivers/CMSIS/Include/cmsis_gcc.h ****   \brief   Initializes data and bss sections
 126:Drivers/CMSIS/Include/cmsis_gcc.h ****   \details This default implementations initialized all data and additional bss
 127:Drivers/CMSIS/Include/cmsis_gcc.h ****            sections relying on .copy.table and .zero.table specified properly
ARM GAS  C:\Users\BANELE~1\AppData\Local\Temp\cc8Zst6e.s 			page 55


 128:Drivers/CMSIS/Include/cmsis_gcc.h ****            in the used linker script.
 129:Drivers/CMSIS/Include/cmsis_gcc.h **** 
 130:Drivers/CMSIS/Include/cmsis_gcc.h ****  */
 131:Drivers/CMSIS/Include/cmsis_gcc.h **** __STATIC_FORCEINLINE __NO_RETURN void __cmsis_start(void)
 132:Drivers/CMSIS/Include/cmsis_gcc.h **** {
 133:Drivers/CMSIS/Include/cmsis_gcc.h ****   extern void _start(void) __NO_RETURN;
 134:Drivers/CMSIS/Include/cmsis_gcc.h **** 
 135:Drivers/CMSIS/Include/cmsis_gcc.h ****   typedef struct {
 136:Drivers/CMSIS/Include/cmsis_gcc.h ****     uint32_t const* src;
 137:Drivers/CMSIS/Include/cmsis_gcc.h ****     uint32_t* dest;
 138:Drivers/CMSIS/Include/cmsis_gcc.h ****     uint32_t  wlen;
 139:Drivers/CMSIS/Include/cmsis_gcc.h ****   } __copy_table_t;
 140:Drivers/CMSIS/Include/cmsis_gcc.h **** 
 141:Drivers/CMSIS/Include/cmsis_gcc.h ****   typedef struct {
 142:Drivers/CMSIS/Include/cmsis_gcc.h ****     uint32_t* dest;
 143:Drivers/CMSIS/Include/cmsis_gcc.h ****     uint32_t  wlen;
 144:Drivers/CMSIS/Include/cmsis_gcc.h ****   } __zero_table_t;
 145:Drivers/CMSIS/Include/cmsis_gcc.h **** 
 146:Drivers/CMSIS/Include/cmsis_gcc.h ****   extern const __copy_table_t __copy_table_start__;
 147:Drivers/CMSIS/Include/cmsis_gcc.h ****   extern const __copy_table_t __copy_table_end__;
 148:Drivers/CMSIS/Include/cmsis_gcc.h ****   extern const __zero_table_t __zero_table_start__;
 149:Drivers/CMSIS/Include/cmsis_gcc.h ****   extern const __zero_table_t __zero_table_end__;
 150:Drivers/CMSIS/Include/cmsis_gcc.h **** 
 151:Drivers/CMSIS/Include/cmsis_gcc.h ****   for (__copy_table_t const* pTable = &__copy_table_start__; pTable < &__copy_table_end__; ++pTable
 152:Drivers/CMSIS/Include/cmsis_gcc.h ****     for(uint32_t i=0u; i<pTable->wlen; ++i) {
 153:Drivers/CMSIS/Include/cmsis_gcc.h ****       pTable->dest[i] = pTable->src[i];
 154:Drivers/CMSIS/Include/cmsis_gcc.h ****     }
 155:Drivers/CMSIS/Include/cmsis_gcc.h ****   }
 156:Drivers/CMSIS/Include/cmsis_gcc.h **** 
 157:Drivers/CMSIS/Include/cmsis_gcc.h ****   for (__zero_table_t const* pTable = &__zero_table_start__; pTable < &__zero_table_end__; ++pTable
 158:Drivers/CMSIS/Include/cmsis_gcc.h ****     for(uint32_t i=0u; i<pTable->wlen; ++i) {
 159:Drivers/CMSIS/Include/cmsis_gcc.h ****       pTable->dest[i] = 0u;
 160:Drivers/CMSIS/Include/cmsis_gcc.h ****     }
 161:Drivers/CMSIS/Include/cmsis_gcc.h ****   }
 162:Drivers/CMSIS/Include/cmsis_gcc.h **** 
 163:Drivers/CMSIS/Include/cmsis_gcc.h ****   _start();
 164:Drivers/CMSIS/Include/cmsis_gcc.h **** }
 165:Drivers/CMSIS/Include/cmsis_gcc.h **** 
 166:Drivers/CMSIS/Include/cmsis_gcc.h **** #define __PROGRAM_START           __cmsis_start
 167:Drivers/CMSIS/Include/cmsis_gcc.h **** #endif
 168:Drivers/CMSIS/Include/cmsis_gcc.h **** 
 169:Drivers/CMSIS/Include/cmsis_gcc.h **** #ifndef __INITIAL_SP
 170:Drivers/CMSIS/Include/cmsis_gcc.h **** #define __INITIAL_SP              __StackTop
 171:Drivers/CMSIS/Include/cmsis_gcc.h **** #endif
 172:Drivers/CMSIS/Include/cmsis_gcc.h **** 
 173:Drivers/CMSIS/Include/cmsis_gcc.h **** #ifndef __STACK_LIMIT
 174:Drivers/CMSIS/Include/cmsis_gcc.h **** #define __STACK_LIMIT             __StackLimit
 175:Drivers/CMSIS/Include/cmsis_gcc.h **** #endif
 176:Drivers/CMSIS/Include/cmsis_gcc.h **** 
 177:Drivers/CMSIS/Include/cmsis_gcc.h **** #ifndef __VECTOR_TABLE
 178:Drivers/CMSIS/Include/cmsis_gcc.h **** #define __VECTOR_TABLE            __Vectors
 179:Drivers/CMSIS/Include/cmsis_gcc.h **** #endif
 180:Drivers/CMSIS/Include/cmsis_gcc.h **** 
 181:Drivers/CMSIS/Include/cmsis_gcc.h **** #ifndef __VECTOR_TABLE_ATTRIBUTE
 182:Drivers/CMSIS/Include/cmsis_gcc.h **** #define __VECTOR_TABLE_ATTRIBUTE  __attribute__((used, section(".vectors")))
 183:Drivers/CMSIS/Include/cmsis_gcc.h **** #endif
 184:Drivers/CMSIS/Include/cmsis_gcc.h **** 
ARM GAS  C:\Users\BANELE~1\AppData\Local\Temp\cc8Zst6e.s 			page 56


 185:Drivers/CMSIS/Include/cmsis_gcc.h **** #if defined (__ARM_FEATURE_CMSE) && (__ARM_FEATURE_CMSE == 3U)
 186:Drivers/CMSIS/Include/cmsis_gcc.h **** #ifndef __STACK_SEAL
 187:Drivers/CMSIS/Include/cmsis_gcc.h **** #define __STACK_SEAL              __StackSeal
 188:Drivers/CMSIS/Include/cmsis_gcc.h **** #endif
 189:Drivers/CMSIS/Include/cmsis_gcc.h **** 
 190:Drivers/CMSIS/Include/cmsis_gcc.h **** #ifndef __TZ_STACK_SEAL_SIZE
 191:Drivers/CMSIS/Include/cmsis_gcc.h **** #define __TZ_STACK_SEAL_SIZE      8U
 192:Drivers/CMSIS/Include/cmsis_gcc.h **** #endif
 193:Drivers/CMSIS/Include/cmsis_gcc.h **** 
 194:Drivers/CMSIS/Include/cmsis_gcc.h **** #ifndef __TZ_STACK_SEAL_VALUE
 195:Drivers/CMSIS/Include/cmsis_gcc.h **** #define __TZ_STACK_SEAL_VALUE     0xFEF5EDA5FEF5EDA5ULL
 196:Drivers/CMSIS/Include/cmsis_gcc.h **** #endif
 197:Drivers/CMSIS/Include/cmsis_gcc.h **** 
 198:Drivers/CMSIS/Include/cmsis_gcc.h **** 
 199:Drivers/CMSIS/Include/cmsis_gcc.h **** __STATIC_FORCEINLINE void __TZ_set_STACKSEAL_S (uint32_t* stackTop) {
 200:Drivers/CMSIS/Include/cmsis_gcc.h ****   *((uint64_t *)stackTop) = __TZ_STACK_SEAL_VALUE;
 201:Drivers/CMSIS/Include/cmsis_gcc.h **** }
 202:Drivers/CMSIS/Include/cmsis_gcc.h **** #endif
 203:Drivers/CMSIS/Include/cmsis_gcc.h **** 
 204:Drivers/CMSIS/Include/cmsis_gcc.h **** 
 205:Drivers/CMSIS/Include/cmsis_gcc.h **** /* ##########################  Core Instruction Access  ######################### */
 206:Drivers/CMSIS/Include/cmsis_gcc.h **** /** \defgroup CMSIS_Core_InstructionInterface CMSIS Core Instruction Interface
 207:Drivers/CMSIS/Include/cmsis_gcc.h ****   Access to dedicated instructions
 208:Drivers/CMSIS/Include/cmsis_gcc.h ****   @{
 209:Drivers/CMSIS/Include/cmsis_gcc.h **** */
 210:Drivers/CMSIS/Include/cmsis_gcc.h **** 
 211:Drivers/CMSIS/Include/cmsis_gcc.h **** /* Define macros for porting to both thumb1 and thumb2.
 212:Drivers/CMSIS/Include/cmsis_gcc.h ****  * For thumb1, use low register (r0-r7), specified by constraint "l"
 213:Drivers/CMSIS/Include/cmsis_gcc.h ****  * Otherwise, use general registers, specified by constraint "r" */
 214:Drivers/CMSIS/Include/cmsis_gcc.h **** #if defined (__thumb__) && !defined (__thumb2__)
 215:Drivers/CMSIS/Include/cmsis_gcc.h **** #define __CMSIS_GCC_OUT_REG(r) "=l" (r)
 216:Drivers/CMSIS/Include/cmsis_gcc.h **** #define __CMSIS_GCC_RW_REG(r) "+l" (r)
 217:Drivers/CMSIS/Include/cmsis_gcc.h **** #define __CMSIS_GCC_USE_REG(r) "l" (r)
 218:Drivers/CMSIS/Include/cmsis_gcc.h **** #else
 219:Drivers/CMSIS/Include/cmsis_gcc.h **** #define __CMSIS_GCC_OUT_REG(r) "=r" (r)
 220:Drivers/CMSIS/Include/cmsis_gcc.h **** #define __CMSIS_GCC_RW_REG(r) "+r" (r)
 221:Drivers/CMSIS/Include/cmsis_gcc.h **** #define __CMSIS_GCC_USE_REG(r) "r" (r)
 222:Drivers/CMSIS/Include/cmsis_gcc.h **** #endif
 223:Drivers/CMSIS/Include/cmsis_gcc.h **** 
 224:Drivers/CMSIS/Include/cmsis_gcc.h **** /**
 225:Drivers/CMSIS/Include/cmsis_gcc.h ****   \brief   No Operation
 226:Drivers/CMSIS/Include/cmsis_gcc.h ****   \details No Operation does nothing. This instruction can be used for code alignment purposes.
 227:Drivers/CMSIS/Include/cmsis_gcc.h ****  */
 228:Drivers/CMSIS/Include/cmsis_gcc.h **** #define __NOP()                             __ASM volatile ("nop")
 229:Drivers/CMSIS/Include/cmsis_gcc.h **** 
 230:Drivers/CMSIS/Include/cmsis_gcc.h **** /**
 231:Drivers/CMSIS/Include/cmsis_gcc.h ****   \brief   Wait For Interrupt
 232:Drivers/CMSIS/Include/cmsis_gcc.h ****   \details Wait For Interrupt is a hint instruction that suspends execution until one of a number o
 233:Drivers/CMSIS/Include/cmsis_gcc.h ****  */
 234:Drivers/CMSIS/Include/cmsis_gcc.h **** #define __WFI()                             __ASM volatile ("wfi":::"memory")
 235:Drivers/CMSIS/Include/cmsis_gcc.h **** 
 236:Drivers/CMSIS/Include/cmsis_gcc.h **** 
 237:Drivers/CMSIS/Include/cmsis_gcc.h **** /**
 238:Drivers/CMSIS/Include/cmsis_gcc.h ****   \brief   Wait For Event
 239:Drivers/CMSIS/Include/cmsis_gcc.h ****   \details Wait For Event is a hint instruction that permits the processor to enter
 240:Drivers/CMSIS/Include/cmsis_gcc.h ****            a low-power state until one of a number of events occurs.
 241:Drivers/CMSIS/Include/cmsis_gcc.h ****  */
ARM GAS  C:\Users\BANELE~1\AppData\Local\Temp\cc8Zst6e.s 			page 57


 242:Drivers/CMSIS/Include/cmsis_gcc.h **** #define __WFE()                             __ASM volatile ("wfe":::"memory")
 243:Drivers/CMSIS/Include/cmsis_gcc.h **** 
 244:Drivers/CMSIS/Include/cmsis_gcc.h **** 
 245:Drivers/CMSIS/Include/cmsis_gcc.h **** /**
 246:Drivers/CMSIS/Include/cmsis_gcc.h ****   \brief   Send Event
 247:Drivers/CMSIS/Include/cmsis_gcc.h ****   \details Send Event is a hint instruction. It causes an event to be signaled to the CPU.
 248:Drivers/CMSIS/Include/cmsis_gcc.h ****  */
 249:Drivers/CMSIS/Include/cmsis_gcc.h **** #define __SEV()                             __ASM volatile ("sev")
 250:Drivers/CMSIS/Include/cmsis_gcc.h **** 
 251:Drivers/CMSIS/Include/cmsis_gcc.h **** 
 252:Drivers/CMSIS/Include/cmsis_gcc.h **** /**
 253:Drivers/CMSIS/Include/cmsis_gcc.h ****   \brief   Instruction Synchronization Barrier
 254:Drivers/CMSIS/Include/cmsis_gcc.h ****   \details Instruction Synchronization Barrier flushes the pipeline in the processor,
 255:Drivers/CMSIS/Include/cmsis_gcc.h ****            so that all instructions following the ISB are fetched from cache or memory,
 256:Drivers/CMSIS/Include/cmsis_gcc.h ****            after the instruction has been completed.
 257:Drivers/CMSIS/Include/cmsis_gcc.h ****  */
 258:Drivers/CMSIS/Include/cmsis_gcc.h **** __STATIC_FORCEINLINE void __ISB(void)
 259:Drivers/CMSIS/Include/cmsis_gcc.h **** {
 260:Drivers/CMSIS/Include/cmsis_gcc.h ****   __ASM volatile ("isb 0xF":::"memory");
 261:Drivers/CMSIS/Include/cmsis_gcc.h **** }
 262:Drivers/CMSIS/Include/cmsis_gcc.h **** 
 263:Drivers/CMSIS/Include/cmsis_gcc.h **** 
 264:Drivers/CMSIS/Include/cmsis_gcc.h **** /**
 265:Drivers/CMSIS/Include/cmsis_gcc.h ****   \brief   Data Synchronization Barrier
 266:Drivers/CMSIS/Include/cmsis_gcc.h ****   \details Acts as a special kind of Data Memory Barrier.
 267:Drivers/CMSIS/Include/cmsis_gcc.h ****            It completes when all explicit memory accesses before this instruction complete.
 268:Drivers/CMSIS/Include/cmsis_gcc.h ****  */
 269:Drivers/CMSIS/Include/cmsis_gcc.h **** __STATIC_FORCEINLINE void __DSB(void)
 1959              		.loc 2 269 27 view .LVU495
 1960              	.LBB59:
 270:Drivers/CMSIS/Include/cmsis_gcc.h **** {
 271:Drivers/CMSIS/Include/cmsis_gcc.h ****   __ASM volatile ("dsb 0xF":::"memory");
 1961              		.loc 2 271 3 view .LVU496
 1962              		.syntax unified
 1963              	@ 271 "Drivers/CMSIS/Include/cmsis_gcc.h" 1
 1964 000e BFF34F8F 		dsb 0xF
 1965              	@ 0 "" 2
 1966              		.thumb
 1967              		.syntax unified
 1968              	.LBE59:
 1969              	.LBE58:
 748:Core/Src/main.c ****     __ISB();
 1970              		.loc 1 748 5 view .LVU497
 1971              	.LBB60:
 1972              	.LBI60:
 258:Drivers/CMSIS/Include/cmsis_gcc.h **** {
 1973              		.loc 2 258 27 view .LVU498
 1974              	.LBB61:
 260:Drivers/CMSIS/Include/cmsis_gcc.h **** }
 1975              		.loc 2 260 3 view .LVU499
 1976              		.syntax unified
 1977              	@ 260 "Drivers/CMSIS/Include/cmsis_gcc.h" 1
 1978 0012 BFF36F8F 		isb 0xF
 1979              	@ 0 "" 2
 1980              		.thumb
 1981              		.syntax unified
 1982              	.LBE61:
ARM GAS  C:\Users\BANELE~1\AppData\Local\Temp\cc8Zst6e.s 			page 58


 1983              	.LBE60:
 749:Core/Src/main.c **** }
 1984              		.loc 1 749 1 is_stmt 0 view .LVU500
 1985 0016 7047     		bx	lr
 1986              	.L99:
 1987              		.align	2
 1988              	.L98:
 1989 0018 00ED00E0 		.word	-536810240
 1990              		.cfi_endproc
 1991              	.LFE149:
 1993              		.section	.text.disable_fpu,"ax",%progbits
 1994              		.align	1
 1995              		.global	disable_fpu
 1996              		.syntax unified
 1997              		.thumb
 1998              		.thumb_func
 2000              	disable_fpu:
 2001              	.LFB150:
 750:Core/Src/main.c **** 
 751:Core/Src/main.c **** void disable_fpu(void) {
 2002              		.loc 1 751 24 is_stmt 1 view -0
 2003              		.cfi_startproc
 2004              		@ args = 0, pretend = 0, frame = 0
 2005              		@ frame_needed = 0, uses_anonymous_args = 0
 2006              		@ link register save eliminated.
 752:Core/Src/main.c ****     // Disable CP10 and CP11 (FPU coprocessors)
 753:Core/Src/main.c ****     SCB->CPACR &= ~((3UL << 10*2)|(3UL << 11*2));
 2007              		.loc 1 753 5 view .LVU502
 2008              		.loc 1 753 8 is_stmt 0 view .LVU503
 2009 0000 054A     		ldr	r2, .L101
 2010 0002 D2F88830 		ldr	r3, [r2, #136]
 2011              		.loc 1 753 16 view .LVU504
 2012 0006 23F47003 		bic	r3, r3, #15728640
 2013 000a C2F88830 		str	r3, [r2, #136]
 754:Core/Src/main.c ****     __DSB();
 2014              		.loc 1 754 5 is_stmt 1 view .LVU505
 2015              	.LBB62:
 2016              	.LBI62:
 269:Drivers/CMSIS/Include/cmsis_gcc.h **** {
 2017              		.loc 2 269 27 view .LVU506
 2018              	.LBB63:
 2019              		.loc 2 271 3 view .LVU507
 2020              		.syntax unified
 2021              	@ 271 "Drivers/CMSIS/Include/cmsis_gcc.h" 1
 2022 000e BFF34F8F 		dsb 0xF
 2023              	@ 0 "" 2
 2024              		.thumb
 2025              		.syntax unified
 2026              	.LBE63:
 2027              	.LBE62:
 755:Core/Src/main.c ****     __ISB();
 2028              		.loc 1 755 5 view .LVU508
 2029              	.LBB64:
 2030              	.LBI64:
 258:Drivers/CMSIS/Include/cmsis_gcc.h **** {
 2031              		.loc 2 258 27 view .LVU509
 2032              	.LBB65:
ARM GAS  C:\Users\BANELE~1\AppData\Local\Temp\cc8Zst6e.s 			page 59


 260:Drivers/CMSIS/Include/cmsis_gcc.h **** }
 2033              		.loc 2 260 3 view .LVU510
 2034              		.syntax unified
 2035              	@ 260 "Drivers/CMSIS/Include/cmsis_gcc.h" 1
 2036 0012 BFF36F8F 		isb 0xF
 2037              	@ 0 "" 2
 2038              		.thumb
 2039              		.syntax unified
 2040              	.LBE65:
 2041              	.LBE64:
 756:Core/Src/main.c **** }
 2042              		.loc 1 756 1 is_stmt 0 view .LVU511
 2043 0016 7047     		bx	lr
 2044              	.L102:
 2045              		.align	2
 2046              	.L101:
 2047 0018 00ED00E0 		.word	-536810240
 2048              		.cfi_endproc
 2049              	.LFE150:
 2051              		.section	.text.is_fpu_enabled,"ax",%progbits
 2052              		.align	1
 2053              		.global	is_fpu_enabled
 2054              		.syntax unified
 2055              		.thumb
 2056              		.thumb_func
 2058              	is_fpu_enabled:
 2059              	.LFB151:
 757:Core/Src/main.c **** 
 758:Core/Src/main.c **** uint8_t is_fpu_enabled(void) {
 2060              		.loc 1 758 30 is_stmt 1 view -0
 2061              		.cfi_startproc
 2062              		@ args = 0, pretend = 0, frame = 0
 2063              		@ frame_needed = 0, uses_anonymous_args = 0
 2064              		@ link register save eliminated.
 759:Core/Src/main.c ****     return ((SCB->CPACR & ((3UL << 10*2)|(3UL << 11*2))) != 0) ? 1 : 0;
 2065              		.loc 1 759 5 view .LVU513
 2066              		.loc 1 759 17 is_stmt 0 view .LVU514
 2067 0000 044B     		ldr	r3, .L104
 2068 0002 D3F88830 		ldr	r3, [r3, #136]
 2069              		.loc 1 759 68 view .LVU515
 2070 0006 13F4700F 		tst	r3, #15728640
 760:Core/Src/main.c **** }
 2071              		.loc 1 760 1 view .LVU516
 2072 000a 14BF     		ite	ne
 2073 000c 0120     		movne	r0, #1
 2074 000e 0020     		moveq	r0, #0
 2075 0010 7047     		bx	lr
 2076              	.L105:
 2077 0012 00BF     		.align	2
 2078              	.L104:
 2079 0014 00ED00E0 		.word	-536810240
 2080              		.cfi_endproc
 2081              	.LFE151:
 2083              		.section	.text.run_task5_fpu_test,"ax",%progbits
 2084              		.align	1
 2085              		.global	run_task5_fpu_test
 2086              		.syntax unified
ARM GAS  C:\Users\BANELE~1\AppData\Local\Temp\cc8Zst6e.s 			page 60


 2087              		.thumb
 2088              		.thumb_func
 2090              	run_task5_fpu_test:
 2091              	.LFB152:
 761:Core/Src/main.c **** 
 762:Core/Src/main.c **** 
 763:Core/Src/main.c **** /**
 764:Core/Src/main.c ****  * @brief Run Task 5 FPU impact test
 765:Core/Src/main.c ****  * Tests all 4 combinations: float/double with FPU enabled/disabled
 766:Core/Src/main.c ****  */
 767:Core/Src/main.c **** void run_task5_fpu_test(void)
 768:Core/Src/main.c **** {
 2092              		.loc 1 768 1 is_stmt 1 view -0
 2093              		.cfi_startproc
 2094              		@ args = 0, pretend = 0, frame = 88
 2095              		@ frame_needed = 0, uses_anonymous_args = 0
 2096 0000 2DE9F04F 		push	{r4, r5, r6, r7, r8, r9, r10, fp, lr}
 2097              	.LCFI24:
 2098              		.cfi_def_cfa_offset 36
 2099              		.cfi_offset 4, -36
 2100              		.cfi_offset 5, -32
 2101              		.cfi_offset 6, -28
 2102              		.cfi_offset 7, -24
 2103              		.cfi_offset 8, -20
 2104              		.cfi_offset 9, -16
 2105              		.cfi_offset 10, -12
 2106              		.cfi_offset 11, -8
 2107              		.cfi_offset 14, -4
 2108 0004 2DED028B 		vpush.64	{d8}
 2109              	.LCFI25:
 2110              		.cfi_def_cfa_offset 44
 2111              		.cfi_offset 80, -44
 2112              		.cfi_offset 81, -40
 2113 0008 97B0     		sub	sp, sp, #92
 2114              	.LCFI26:
 2115              		.cfi_def_cfa_offset 136
 769:Core/Src/main.c ****     dwt_init();
 2116              		.loc 1 769 5 view .LVU518
 2117 000a FFF7FEFF 		bl	dwt_init
 2118              	.LVL204:
 770:Core/Src/main.c **** 
 771:Core/Src/main.c ****     t5_fpu_enabled = (FPU_BUILD ? 1 : 0); // reflect build-time FPU state in live expressions
 2119              		.loc 1 771 5 view .LVU519
 2120              		.loc 1 771 20 is_stmt 0 view .LVU520
 2121 000e 6A4B     		ldr	r3, .L115
 2122 0010 0122     		movs	r2, #1
 2123 0012 1A70     		strb	r2, [r3]
 772:Core/Src/main.c **** 
 773:Core/Src/main.c ****     const uint16_t sizes[5][2] = {
 2124              		.loc 1 773 5 is_stmt 1 view .LVU521
 2125              		.loc 1 773 20 is_stmt 0 view .LVU522
 2126 0014 11AC     		add	r4, sp, #68
 2127 0016 694D     		ldr	r5, .L115+4
 2128 0018 0FCD     		ldmia	r5!, {r0, r1, r2, r3}
 2129 001a 0FC4     		stmia	r4!, {r0, r1, r2, r3}
 2130 001c 2B68     		ldr	r3, [r5]
 2131 001e 2360     		str	r3, [r4]
ARM GAS  C:\Users\BANELE~1\AppData\Local\Temp\cc8Zst6e.s 			page 61


 774:Core/Src/main.c ****         {128,128}, {160,160}, {192,192}, {224,224}, {256,256}
 775:Core/Src/main.c ****     };
 776:Core/Src/main.c **** 
 777:Core/Src/main.c ****     for (int size_idx = 0; size_idx < 5; ++size_idx) {
 2132              		.loc 1 777 5 is_stmt 1 view .LVU523
 2133              	.LBB66:
 2134              		.loc 1 777 10 view .LVU524
 2135              	.LVL205:
 2136              		.loc 1 777 14 is_stmt 0 view .LVU525
 2137 0020 0024     		movs	r4, #0
 2138              		.loc 1 777 5 view .LVU526
 2139 0022 8BE0     		b	.L107
 2140              	.LVL206:
 2141              	.L111:
 2142              	.LBB67:
 778:Core/Src/main.c ****         uint16_t w = sizes[size_idx][0];
 779:Core/Src/main.c ****         uint16_t h = sizes[size_idx][1];
 780:Core/Src/main.c ****         uint32_t total_pixels = (uint32_t)w * (uint32_t)h;
 781:Core/Src/main.c **** 
 782:Core/Src/main.c ****         // --- FLOAT run ---
 783:Core/Src/main.c ****         HAL_GPIO_TogglePin(GPIOB, GPIO_PIN_6);
 784:Core/Src/main.c ****         DWT->CYCCNT = 0;
 785:Core/Src/main.c ****         uint32_t c0 = DWT->CYCCNT;
 786:Core/Src/main.c ****         uint32_t t0 = HAL_GetTick();
 787:Core/Src/main.c **** 
 788:Core/Src/main.c ****         uint64_t chk_f = calculate_mandelbrot_float(w, h, MAX_ITER);
 789:Core/Src/main.c **** 
 790:Core/Src/main.c ****         uint32_t t1 = HAL_GetTick();
 791:Core/Src/main.c ****         uint32_t c1 = DWT->CYCCNT;
 792:Core/Src/main.c **** 
 793:Core/Src/main.c ****         uint32_t ms_f = t1 - t0;
 794:Core/Src/main.c ****         uint32_t cyc_f = c1 - c0;
 795:Core/Src/main.c ****         float thr_f = (ms_f > 0) ? ((float)total_pixels / ((float)ms_f / 1000.0f)) : 0.0f;
 2143              		.loc 1 795 84 discriminator 2 view .LVU527
 2144 0024 DFED667A 		vldr.32	s15, .L115+8
 2145              	.L108:
 2146              	.LVL207:
 796:Core/Src/main.c **** 
 797:Core/Src/main.c ****         task5_results[size_idx][0] = (Task5Result){
 2147              		.loc 1 797 9 is_stmt 1 view .LVU528
 2148              		.loc 1 797 36 is_stmt 0 view .LVU529
 2149 0028 634B     		ldr	r3, .L115
 2150              	.LVL208:
 2151              		.loc 1 797 36 view .LVU530
 2152 002a 1B78     		ldrb	r3, [r3]	@ zero_extendqisi2
 2153 002c ADF80070 		strh	r7, [sp]	@ movhi
 2154 0030 ADF80260 		strh	r6, [sp, #2]	@ movhi
 2155 0034 0195     		str	r5, [sp, #4]
 2156 0036 CDF808B0 		str	fp, [sp, #8]
 2157 003a CDF80CA0 		str	r10, [sp, #12]
 2158 003e CDF81090 		str	r9, [sp, #16]
 2159 0042 CDED057A 		vstr.32	s15, [sp, #20]
 2160 0046 8DF81830 		strb	r3, [sp, #24]
 2161 004a 4FF00008 		mov	r8, #0
 2162              	.LVL209:
 2163              		.loc 1 797 36 view .LVU531
 2164 004e 8DF81980 		strb	r8, [sp, #25]
ARM GAS  C:\Users\BANELE~1\AppData\Local\Temp\cc8Zst6e.s 			page 62


 2165 0052 5C4B     		ldr	r3, .L115+12
 2166 0054 03EB841C 		add	ip, r3, r4, lsl #6
 2167 0058 EE46     		mov	lr, sp
 2168 005a BEE80F00 		ldmia	lr!, {r0, r1, r2, r3}
 2169              	.LVL210:
 2170              		.loc 1 797 36 view .LVU532
 2171 005e ACE80F00 		stmia	ip!, {r0, r1, r2, r3}
 2172 0062 9EE80F00 		ldm	lr, {r0, r1, r2, r3}
 2173 0066 8CE80F00 		stm	ip, {r0, r1, r2, r3}
 798:Core/Src/main.c ****             .width = w, .height = h,
 799:Core/Src/main.c ****             .exec_time_ms = ms_f,
 800:Core/Src/main.c ****             .checksum = chk_f,
 801:Core/Src/main.c ****             .cpu_cycles = cyc_f,
 802:Core/Src/main.c ****             .throughput_pixels_per_sec = thr_f,
 803:Core/Src/main.c ****             .fpu_enabled = t5_fpu_enabled,
 804:Core/Src/main.c ****             .data_type = 0  // float
 805:Core/Src/main.c ****         };
 806:Core/Src/main.c **** 
 807:Core/Src/main.c ****         t5_exec_ms = ms_f;
 2174              		.loc 1 807 9 is_stmt 1 view .LVU533
 2175              		.loc 1 807 20 is_stmt 0 view .LVU534
 2176 006a 574B     		ldr	r3, .L115+16
 2177 006c 1D60     		str	r5, [r3]
 808:Core/Src/main.c ****         t5_cycles = cyc_f;
 2178              		.loc 1 808 9 is_stmt 1 view .LVU535
 2179              		.loc 1 808 19 is_stmt 0 view .LVU536
 2180 006e 574B     		ldr	r3, .L115+20
 2181 0070 C3F80090 		str	r9, [r3]
 809:Core/Src/main.c ****         t5_throughput = thr_f;
 2182              		.loc 1 809 9 is_stmt 1 view .LVU537
 2183              		.loc 1 809 23 is_stmt 0 view .LVU538
 2184 0074 564B     		ldr	r3, .L115+24
 2185 0076 C3ED007A 		vstr.32	s15, [r3]
 810:Core/Src/main.c ****         t5_data_type = 0;
 2186              		.loc 1 810 9 is_stmt 1 view .LVU539
 2187              		.loc 1 810 22 is_stmt 0 view .LVU540
 2188 007a 564B     		ldr	r3, .L115+28
 2189 007c 83F80080 		strb	r8, [r3]
 811:Core/Src/main.c **** 
 812:Core/Src/main.c ****         HAL_Delay(30);
 2190              		.loc 1 812 9 is_stmt 1 view .LVU541
 2191 0080 1E20     		movs	r0, #30
 2192 0082 FFF7FEFF 		bl	HAL_Delay
 2193              	.LVL211:
 813:Core/Src/main.c **** 
 814:Core/Src/main.c ****         // --- DOUBLE run ---
 815:Core/Src/main.c ****         HAL_GPIO_TogglePin(GPIOB, GPIO_PIN_6);
 2194              		.loc 1 815 9 view .LVU542
 2195 0086 4021     		movs	r1, #64
 2196 0088 5348     		ldr	r0, .L115+32
 2197 008a FFF7FEFF 		bl	HAL_GPIO_TogglePin
 2198              	.LVL212:
 816:Core/Src/main.c ****         DWT->CYCCNT = 0;
 2199              		.loc 1 816 9 view .LVU543
 2200              		.loc 1 816 21 is_stmt 0 view .LVU544
 2201 008e 534D     		ldr	r5, .L115+36
 2202              	.LVL213:
ARM GAS  C:\Users\BANELE~1\AppData\Local\Temp\cc8Zst6e.s 			page 63


 2203              		.loc 1 816 21 view .LVU545
 2204 0090 C5F80480 		str	r8, [r5, #4]
 2205              	.LVL214:
 817:Core/Src/main.c ****         c0 = DWT->CYCCNT;
 2206              		.loc 1 817 9 is_stmt 1 view .LVU546
 2207              		.loc 1 817 12 is_stmt 0 view .LVU547
 2208 0094 D5F80480 		ldr	r8, [r5, #4]
 2209              	.LVL215:
 818:Core/Src/main.c ****         t0 = HAL_GetTick();
 2210              		.loc 1 818 9 is_stmt 1 view .LVU548
 2211              		.loc 1 818 14 is_stmt 0 view .LVU549
 2212 0098 FFF7FEFF 		bl	HAL_GetTick
 2213              	.LVL216:
 2214 009c 8146     		mov	r9, r0
 2215              	.LVL217:
 819:Core/Src/main.c **** 
 820:Core/Src/main.c ****         uint64_t chk_d = calculate_mandelbrot_double(w, h, MAX_ITER);
 2216              		.loc 1 820 9 is_stmt 1 view .LVU550
 2217              		.loc 1 820 26 is_stmt 0 view .LVU551
 2218 009e 6422     		movs	r2, #100
 2219 00a0 3146     		mov	r1, r6
 2220 00a2 3846     		mov	r0, r7
 2221              	.LVL218:
 2222              		.loc 1 820 26 view .LVU552
 2223 00a4 FFF7FEFF 		bl	calculate_mandelbrot_double
 2224              	.LVL219:
 2225 00a8 8346     		mov	fp, r0
 2226              	.LVL220:
 2227              		.loc 1 820 26 view .LVU553
 2228 00aa 8A46     		mov	r10, r1
 2229              	.LVL221:
 821:Core/Src/main.c **** 
 822:Core/Src/main.c ****         t1 = HAL_GetTick();
 2230              		.loc 1 822 9 is_stmt 1 view .LVU554
 2231              		.loc 1 822 14 is_stmt 0 view .LVU555
 2232 00ac FFF7FEFF 		bl	HAL_GetTick
 2233              	.LVL222:
 823:Core/Src/main.c ****         c1 = DWT->CYCCNT;
 2234              		.loc 1 823 9 is_stmt 1 view .LVU556
 2235              		.loc 1 823 12 is_stmt 0 view .LVU557
 2236 00b0 6B68     		ldr	r3, [r5, #4]
 2237              	.LVL223:
 824:Core/Src/main.c **** 
 825:Core/Src/main.c ****         uint32_t ms_d = t1 - t0;
 2238              		.loc 1 825 9 is_stmt 1 view .LVU558
 826:Core/Src/main.c ****         uint32_t cyc_d = c1 - c0;
 2239              		.loc 1 826 9 view .LVU559
 2240              		.loc 1 826 18 is_stmt 0 view .LVU560
 2241 00b2 A3EB0808 		sub	r8, r3, r8
 2242              	.LVL224:
 827:Core/Src/main.c ****         float thr_d = (ms_d > 0) ? ((float)total_pixels / ((float)ms_d / 1000.0f)) : 0.0f;
 2243              		.loc 1 827 9 is_stmt 1 view .LVU561
 2244              		.loc 1 827 84 is_stmt 0 view .LVU562
 2245 00b6 B0EB0905 		subs	r5, r0, r9
 2246              	.LVL225:
 2247              		.loc 1 827 84 view .LVU563
 2248 00ba 0CD0     		beq	.L112
ARM GAS  C:\Users\BANELE~1\AppData\Local\Temp\cc8Zst6e.s 			page 64


 2249              		.loc 1 827 37 discriminator 1 view .LVU564
 2250 00bc B8EE488A 		vcvt.f32.u32	s16, s16
 2251              	.LVL226:
 2252              		.loc 1 827 60 discriminator 1 view .LVU565
 2253 00c0 07EE905A 		vmov	s15, r5	@ int
 2254 00c4 F8EE676A 		vcvt.f32.u32	s13, s15
 2255              		.loc 1 827 72 discriminator 1 view .LVU566
 2256 00c8 DFED457A 		vldr.32	s15, .L115+40
 2257 00cc 86EEA77A 		vdiv.f32	s14, s13, s15
 2258              		.loc 1 827 84 discriminator 1 view .LVU567
 2259 00d0 C8EE077A 		vdiv.f32	s15, s16, s14
 2260 00d4 01E0     		b	.L109
 2261              	.LVL227:
 2262              	.L112:
 2263              		.loc 1 827 84 discriminator 2 view .LVU568
 2264 00d6 DFED3A7A 		vldr.32	s15, .L115+8
 2265              	.LVL228:
 2266              	.L109:
 828:Core/Src/main.c **** 
 829:Core/Src/main.c ****         task5_results[size_idx][1] = (Task5Result){
 2267              		.loc 1 829 9 is_stmt 1 view .LVU569
 2268              		.loc 1 829 36 is_stmt 0 view .LVU570
 2269 00da 374B     		ldr	r3, .L115
 2270              	.LVL229:
 2271              		.loc 1 829 36 view .LVU571
 2272 00dc 1B78     		ldrb	r3, [r3]	@ zero_extendqisi2
 2273 00de ADF82070 		strh	r7, [sp, #32]	@ movhi
 2274 00e2 ADF82260 		strh	r6, [sp, #34]	@ movhi
 2275 00e6 0995     		str	r5, [sp, #36]
 2276 00e8 CDF828B0 		str	fp, [sp, #40]
 2277 00ec CDF82CA0 		str	r10, [sp, #44]
 2278 00f0 CDF83080 		str	r8, [sp, #48]
 2279 00f4 CDED0D7A 		vstr.32	s15, [sp, #52]
 2280 00f8 8DF83830 		strb	r3, [sp, #56]
 2281 00fc 0126     		movs	r6, #1
 2282              	.LVL230:
 2283              		.loc 1 829 36 view .LVU572
 2284 00fe 8DF83960 		strb	r6, [sp, #57]
 2285 0102 304B     		ldr	r3, .L115+12
 2286 0104 03EB841C 		add	ip, r3, r4, lsl #6
 2287 0108 0CF1200C 		add	ip, ip, #32
 2288 010c 0DF1200E 		add	lr, sp, #32
 2289 0110 BEE80F00 		ldmia	lr!, {r0, r1, r2, r3}
 2290              	.LVL231:
 2291              		.loc 1 829 36 view .LVU573
 2292 0114 ACE80F00 		stmia	ip!, {r0, r1, r2, r3}
 2293 0118 9EE80F00 		ldm	lr, {r0, r1, r2, r3}
 2294 011c 8CE80F00 		stm	ip, {r0, r1, r2, r3}
 830:Core/Src/main.c ****             .width = w, .height = h,
 831:Core/Src/main.c ****             .exec_time_ms = ms_d,
 832:Core/Src/main.c ****             .checksum = chk_d,
 833:Core/Src/main.c ****             .cpu_cycles = cyc_d,
 834:Core/Src/main.c ****             .throughput_pixels_per_sec = thr_d,
 835:Core/Src/main.c ****             .fpu_enabled = t5_fpu_enabled,
 836:Core/Src/main.c ****             .data_type = 1  // double
 837:Core/Src/main.c ****         };
 838:Core/Src/main.c **** 
ARM GAS  C:\Users\BANELE~1\AppData\Local\Temp\cc8Zst6e.s 			page 65


 839:Core/Src/main.c ****         t5_exec_ms = ms_d;
 2295              		.loc 1 839 9 is_stmt 1 view .LVU574
 2296              		.loc 1 839 20 is_stmt 0 view .LVU575
 2297 0120 294B     		ldr	r3, .L115+16
 2298 0122 1D60     		str	r5, [r3]
 840:Core/Src/main.c ****         t5_cycles = cyc_d;
 2299              		.loc 1 840 9 is_stmt 1 view .LVU576
 2300              		.loc 1 840 19 is_stmt 0 view .LVU577
 2301 0124 294B     		ldr	r3, .L115+20
 2302 0126 C3F80080 		str	r8, [r3]
 841:Core/Src/main.c ****         t5_throughput = thr_d;
 2303              		.loc 1 841 9 is_stmt 1 view .LVU578
 2304              		.loc 1 841 23 is_stmt 0 view .LVU579
 2305 012a 294B     		ldr	r3, .L115+24
 2306 012c C3ED007A 		vstr.32	s15, [r3]
 842:Core/Src/main.c ****         t5_data_type = 1;
 2307              		.loc 1 842 9 is_stmt 1 view .LVU580
 2308              		.loc 1 842 22 is_stmt 0 view .LVU581
 2309 0130 284B     		ldr	r3, .L115+28
 2310 0132 1E70     		strb	r6, [r3]
 843:Core/Src/main.c **** 
 844:Core/Src/main.c ****         HAL_Delay(50);
 2311              		.loc 1 844 9 is_stmt 1 view .LVU582
 2312 0134 3220     		movs	r0, #50
 2313 0136 FFF7FEFF 		bl	HAL_Delay
 2314              	.LVL232:
 2315              		.loc 1 844 9 is_stmt 0 view .LVU583
 2316              	.LBE67:
 777:Core/Src/main.c ****         uint16_t w = sizes[size_idx][0];
 2317              		.loc 1 777 42 is_stmt 1 discriminator 2 view .LVU584
 2318 013a 3444     		add	r4, r4, r6
 2319              	.LVL233:
 2320              	.L107:
 777:Core/Src/main.c ****         uint16_t w = sizes[size_idx][0];
 2321              		.loc 1 777 37 discriminator 1 view .LVU585
 2322 013c 042C     		cmp	r4, #4
 2323 013e 33DC     		bgt	.L114
 2324              	.LBB68:
 778:Core/Src/main.c ****         uint16_t h = sizes[size_idx][1];
 2325              		.loc 1 778 9 view .LVU586
 778:Core/Src/main.c ****         uint16_t h = sizes[size_idx][1];
 2326              		.loc 1 778 18 is_stmt 0 view .LVU587
 2327 0140 16AB     		add	r3, sp, #88
 2328 0142 03EB8403 		add	r3, r3, r4, lsl #2
 2329 0146 33F8147C 		ldrh	r7, [r3, #-20]
 2330              	.LVL234:
 779:Core/Src/main.c ****         uint32_t total_pixels = (uint32_t)w * (uint32_t)h;
 2331              		.loc 1 779 9 is_stmt 1 view .LVU588
 779:Core/Src/main.c ****         uint32_t total_pixels = (uint32_t)w * (uint32_t)h;
 2332              		.loc 1 779 18 is_stmt 0 view .LVU589
 2333 014a 33F8126C 		ldrh	r6, [r3, #-18]
 2334              	.LVL235:
 780:Core/Src/main.c **** 
 2335              		.loc 1 780 9 is_stmt 1 view .LVU590
 780:Core/Src/main.c **** 
 2336              		.loc 1 780 18 is_stmt 0 view .LVU591
 2337 014e 06FB07F3 		mul	r3, r6, r7
ARM GAS  C:\Users\BANELE~1\AppData\Local\Temp\cc8Zst6e.s 			page 66


 2338 0152 08EE103A 		vmov	s16, r3	@ int
 2339              	.LVL236:
 783:Core/Src/main.c ****         DWT->CYCCNT = 0;
 2340              		.loc 1 783 9 is_stmt 1 view .LVU592
 2341 0156 4021     		movs	r1, #64
 2342 0158 1F48     		ldr	r0, .L115+32
 2343 015a FFF7FEFF 		bl	HAL_GPIO_TogglePin
 2344              	.LVL237:
 784:Core/Src/main.c ****         uint32_t c0 = DWT->CYCCNT;
 2345              		.loc 1 784 9 view .LVU593
 784:Core/Src/main.c ****         uint32_t c0 = DWT->CYCCNT;
 2346              		.loc 1 784 21 is_stmt 0 view .LVU594
 2347 015e 1F4D     		ldr	r5, .L115+36
 2348 0160 0023     		movs	r3, #0
 2349 0162 6B60     		str	r3, [r5, #4]
 785:Core/Src/main.c ****         uint32_t t0 = HAL_GetTick();
 2350              		.loc 1 785 9 is_stmt 1 view .LVU595
 785:Core/Src/main.c ****         uint32_t t0 = HAL_GetTick();
 2351              		.loc 1 785 18 is_stmt 0 view .LVU596
 2352 0164 D5F80490 		ldr	r9, [r5, #4]
 2353              	.LVL238:
 786:Core/Src/main.c **** 
 2354              		.loc 1 786 9 is_stmt 1 view .LVU597
 786:Core/Src/main.c **** 
 2355              		.loc 1 786 23 is_stmt 0 view .LVU598
 2356 0168 FFF7FEFF 		bl	HAL_GetTick
 2357              	.LVL239:
 2358 016c 8046     		mov	r8, r0
 2359              	.LVL240:
 788:Core/Src/main.c **** 
 2360              		.loc 1 788 9 is_stmt 1 view .LVU599
 788:Core/Src/main.c **** 
 2361              		.loc 1 788 26 is_stmt 0 view .LVU600
 2362 016e 6422     		movs	r2, #100
 2363 0170 3146     		mov	r1, r6
 2364 0172 3846     		mov	r0, r7
 2365              	.LVL241:
 788:Core/Src/main.c **** 
 2366              		.loc 1 788 26 view .LVU601
 2367 0174 FFF7FEFF 		bl	calculate_mandelbrot_float
 2368              	.LVL242:
 2369 0178 8346     		mov	fp, r0
 2370 017a 8A46     		mov	r10, r1
 2371              	.LVL243:
 790:Core/Src/main.c ****         uint32_t c1 = DWT->CYCCNT;
 2372              		.loc 1 790 9 is_stmt 1 view .LVU602
 790:Core/Src/main.c ****         uint32_t c1 = DWT->CYCCNT;
 2373              		.loc 1 790 23 is_stmt 0 view .LVU603
 2374 017c FFF7FEFF 		bl	HAL_GetTick
 2375              	.LVL244:
 791:Core/Src/main.c **** 
 2376              		.loc 1 791 9 is_stmt 1 view .LVU604
 791:Core/Src/main.c **** 
 2377              		.loc 1 791 18 is_stmt 0 view .LVU605
 2378 0180 6B68     		ldr	r3, [r5, #4]
 2379              	.LVL245:
 793:Core/Src/main.c ****         uint32_t cyc_f = c1 - c0;
ARM GAS  C:\Users\BANELE~1\AppData\Local\Temp\cc8Zst6e.s 			page 67


 2380              		.loc 1 793 9 is_stmt 1 view .LVU606
 794:Core/Src/main.c ****         float thr_f = (ms_f > 0) ? ((float)total_pixels / ((float)ms_f / 1000.0f)) : 0.0f;
 2381              		.loc 1 794 9 view .LVU607
 794:Core/Src/main.c ****         float thr_f = (ms_f > 0) ? ((float)total_pixels / ((float)ms_f / 1000.0f)) : 0.0f;
 2382              		.loc 1 794 18 is_stmt 0 view .LVU608
 2383 0182 A3EB0909 		sub	r9, r3, r9
 2384              	.LVL246:
 795:Core/Src/main.c **** 
 2385              		.loc 1 795 9 is_stmt 1 view .LVU609
 795:Core/Src/main.c **** 
 2386              		.loc 1 795 84 is_stmt 0 view .LVU610
 2387 0186 B0EB0805 		subs	r5, r0, r8
 2388              	.LVL247:
 795:Core/Src/main.c **** 
 2389              		.loc 1 795 84 view .LVU611
 2390 018a 3FF44BAF 		beq	.L111
 795:Core/Src/main.c **** 
 2391              		.loc 1 795 37 discriminator 1 view .LVU612
 2392 018e B8EE487A 		vcvt.f32.u32	s14, s16
 795:Core/Src/main.c **** 
 2393              		.loc 1 795 60 discriminator 1 view .LVU613
 2394 0192 07EE905A 		vmov	s15, r5	@ int
 2395 0196 B8EE676A 		vcvt.f32.u32	s12, s15
 795:Core/Src/main.c **** 
 2396              		.loc 1 795 72 discriminator 1 view .LVU614
 2397 019a DFED117A 		vldr.32	s15, .L115+40
 2398 019e C6EE276A 		vdiv.f32	s13, s12, s15
 795:Core/Src/main.c **** 
 2399              		.loc 1 795 84 discriminator 1 view .LVU615
 2400 01a2 C7EE267A 		vdiv.f32	s15, s14, s13
 2401 01a6 3FE7     		b	.L108
 2402              	.LVL248:
 2403              	.L114:
 795:Core/Src/main.c **** 
 2404              		.loc 1 795 84 discriminator 1 view .LVU616
 2405              	.LBE68:
 2406              	.LBE66:
 845:Core/Src/main.c ****     }
 846:Core/Src/main.c **** 
 847:Core/Src/main.c ****     task5_done = 1;
 2407              		.loc 1 847 5 is_stmt 1 view .LVU617
 2408              		.loc 1 847 16 is_stmt 0 view .LVU618
 2409 01a8 0E4B     		ldr	r3, .L115+44
 2410 01aa 0122     		movs	r2, #1
 2411 01ac 1A70     		strb	r2, [r3]
 848:Core/Src/main.c **** }
 2412              		.loc 1 848 1 view .LVU619
 2413 01ae 17B0     		add	sp, sp, #92
 2414              	.LCFI27:
 2415              		.cfi_def_cfa_offset 44
 2416              		@ sp needed
 2417 01b0 BDEC028B 		vldm	sp!, {d8}
 2418              	.LCFI28:
 2419              		.cfi_restore 80
 2420              		.cfi_restore 81
 2421              		.cfi_def_cfa_offset 36
 2422 01b4 BDE8F08F 		pop	{r4, r5, r6, r7, r8, r9, r10, fp, pc}
ARM GAS  C:\Users\BANELE~1\AppData\Local\Temp\cc8Zst6e.s 			page 68


 2423              	.LVL249:
 2424              	.L116:
 2425              		.loc 1 848 1 view .LVU620
 2426              		.align	2
 2427              	.L115:
 2428 01b8 00000000 		.word	t5_fpu_enabled
 2429 01bc 00000000 		.word	.LANCHOR0
 2430 01c0 00000000 		.word	0
 2431 01c4 00000000 		.word	task5_results
 2432 01c8 00000000 		.word	t5_exec_ms
 2433 01cc 00000000 		.word	t5_cycles
 2434 01d0 00000000 		.word	t5_throughput
 2435 01d4 00000000 		.word	t5_data_type
 2436 01d8 00040240 		.word	1073873920
 2437 01dc 001000E0 		.word	-536866816
 2438 01e0 00007A44 		.word	1148846080
 2439 01e4 00000000 		.word	task5_done
 2440              		.cfi_endproc
 2441              	.LFE152:
 2443              		.section	.text.get_binary_size,"ax",%progbits
 2444              		.align	1
 2445              		.global	get_binary_size
 2446              		.syntax unified
 2447              		.thumb
 2448              		.thumb_func
 2450              	get_binary_size:
 2451              	.LFB155:
 849:Core/Src/main.c **** 
 850:Core/Src/main.c **** 
 851:Core/Src/main.c **** // Return cycles elapsed between two reads (handles 32-bit wrap naturally)
 852:Core/Src/main.c **** static inline uint32_t cycles_delta(uint32_t start, uint32_t end) {
 853:Core/Src/main.c ****     return (uint32_t)(end - start);
 854:Core/Src/main.c **** }
 855:Core/Src/main.c **** 
 856:Core/Src/main.c **** /**
 857:Core/Src/main.c ****  * @brief Run Task 6 compiler optimization test
 858:Core/Src/main.c ****  */
 859:Core/Src/main.c **** void run_task6_optimization_test(void)
 860:Core/Src/main.c **** {
 861:Core/Src/main.c ****     // START INDICATOR
 862:Core/Src/main.c ****     for (int i = 0; i < 2; i++) {
 863:Core/Src/main.c ****         HAL_GPIO_WritePin(GPIOB, GPIO_PIN_6, GPIO_PIN_SET);
 864:Core/Src/main.c ****         HAL_Delay(200);
 865:Core/Src/main.c ****         HAL_GPIO_WritePin(GPIOB, GPIO_PIN_6, GPIO_PIN_RESET);
 866:Core/Src/main.c ****         HAL_Delay(200);
 867:Core/Src/main.c ****     }
 868:Core/Src/main.c ****     
 869:Core/Src/main.c ****     const uint16_t test_sizes[][2] = {
 870:Core/Src/main.c ****         {128, 128}, {160, 160}, {192, 192}, {224, 224}, {256, 256}
 871:Core/Src/main.c ****     };
 872:Core/Src/main.c ****     
 873:Core/Src/main.c ****     // Get binary size and optimization level
 874:Core/Src/main.c ****     uint32_t binary_size = get_binary_size();
 875:Core/Src/main.c ****     t6_binary_size = binary_size;
 876:Core/Src/main.c ****     
 877:Core/Src/main.c ****     // Test all image sizes but only record the first one for simplicity
 878:Core/Src/main.c ****     for (int size_idx = 0; size_idx < 5; size_idx++) {
ARM GAS  C:\Users\BANELE~1\AppData\Local\Temp\cc8Zst6e.s 			page 69


 879:Core/Src/main.c ****         uint16_t width = test_sizes[size_idx][0];
 880:Core/Src/main.c ****         uint16_t height = test_sizes[size_idx][1];
 881:Core/Src/main.c ****         
 882:Core/Src/main.c ****         // Progress indicator
 883:Core/Src/main.c ****         HAL_GPIO_WritePin(GPIOB, GPIO_PIN_0 + size_idx, GPIO_PIN_SET);
 884:Core/Src/main.c ****         
 885:Core/Src/main.c ****         // Time the execution
 886:Core/Src/main.c ****         DWT->CYCCNT = 0;
 887:Core/Src/main.c ****         uint32_t start_time = HAL_GetTick();
 888:Core/Src/main.c ****         
 889:Core/Src/main.c ****         uint64_t checksum = calculate_mandelbrot_fixed_point_arithmetic(width, height, MAX_ITER);
 890:Core/Src/main.c ****         
 891:Core/Src/main.c ****         uint32_t end_time = HAL_GetTick();
 892:Core/Src/main.c ****         uint32_t exec_time_ms = end_time - start_time;
 893:Core/Src/main.c ****         
 894:Core/Src/main.c ****         // Store results for the first size only
 895:Core/Src/main.c ****         if (size_idx == 0) {
 896:Core/Src/main.c ****             task6_results = (Task6Result){
 897:Core/Src/main.c ****                 .binary_size = binary_size,
 898:Core/Src/main.c ****                 .exec_time_ms = exec_time_ms,
 899:Core/Src/main.c ****                 .checksum = checksum,
 900:Core/Src/main.c ****                 .optimization_level = OPT_LEVEL_STR
 901:Core/Src/main.c ****             };
 902:Core/Src/main.c ****             
 903:Core/Src/main.c ****             t6_exec_time = exec_time_ms;
 904:Core/Src/main.c ****             // Copy optimization level string
 905:Core/Src/main.c ****             for (int i = 0; i < 3 && OPT_LEVEL_STR[i] != '\0'; i++) {
 906:Core/Src/main.c ****                 t6_optimization_level[i] = OPT_LEVEL_STR[i];
 907:Core/Src/main.c ****             }
 908:Core/Src/main.c ****         }
 909:Core/Src/main.c ****         
 910:Core/Src/main.c ****         HAL_GPIO_WritePin(GPIOB, GPIO_PIN_0 + size_idx, GPIO_PIN_RESET);
 911:Core/Src/main.c ****         HAL_Delay(50);
 912:Core/Src/main.c ****     }
 913:Core/Src/main.c ****     
 914:Core/Src/main.c ****     // COMPLETION INDICATOR
 915:Core/Src/main.c ****     for (int i = 0; i < 4; i++) {
 916:Core/Src/main.c ****         HAL_GPIO_TogglePin(GPIOB, GPIO_PIN_6);
 917:Core/Src/main.c ****         HAL_Delay(100);
 918:Core/Src/main.c ****     }
 919:Core/Src/main.c ****     
 920:Core/Src/main.c ****     task6_done = 1;
 921:Core/Src/main.c **** }
 922:Core/Src/main.c **** 
 923:Core/Src/main.c **** /**
 924:Core/Src/main.c ****  * @brief Get the binary size from linker symbols
 925:Core/Src/main.c ****  * These symbols are automatically defined by the linker
 926:Core/Src/main.c ****  */
 927:Core/Src/main.c **** uint32_t get_binary_size(void)
 928:Core/Src/main.c **** {
 2452              		.loc 1 928 1 is_stmt 1 view -0
 2453              		.cfi_startproc
 2454              		@ args = 0, pretend = 0, frame = 16
 2455              		@ frame_needed = 0, uses_anonymous_args = 0
 2456              		@ link register save eliminated.
 2457 0000 84B0     		sub	sp, sp, #16
 2458              	.LCFI29:
ARM GAS  C:\Users\BANELE~1\AppData\Local\Temp\cc8Zst6e.s 			page 70


 2459              		.cfi_def_cfa_offset 16
 929:Core/Src/main.c ****     volatile Task6Result task6_results;
 2460              		.loc 1 929 5 view .LVU622
 930:Core/Src/main.c ****     volatile uint8_t task6_done = 0;
 2461              		.loc 1 930 5 view .LVU623
 2462              		.loc 1 930 22 is_stmt 0 view .LVU624
 2463 0002 0023     		movs	r3, #0
 2464 0004 8DF80F30 		strb	r3, [sp, #15]
 931:Core/Src/main.c ****     volatile uint32_t t6_binary_size = 0;
 2465              		.loc 1 931 5 is_stmt 1 view .LVU625
 2466              		.loc 1 931 23 is_stmt 0 view .LVU626
 2467 0008 0293     		str	r3, [sp, #8]
 932:Core/Src/main.c ****     volatile uint32_t t6_exec_time = 0;
 2468              		.loc 1 932 5 is_stmt 1 view .LVU627
 2469              		.loc 1 932 23 is_stmt 0 view .LVU628
 2470 000a 0193     		str	r3, [sp, #4]
 933:Core/Src/main.c ****     volatile char t6_optimization_level[4] = "Og"; // Default
 2471              		.loc 1 933 5 is_stmt 1 view .LVU629
 2472              		.loc 1 933 19 is_stmt 0 view .LVU630
 2473 000c 46F24F73 		movw	r3, #26447
 2474 0010 0093     		str	r3, [sp]
 934:Core/Src/main.c **** }
 2475              		.loc 1 934 1 view .LVU631
 2476 0012 04B0     		add	sp, sp, #16
 2477              	.LCFI30:
 2478              		.cfi_def_cfa_offset 0
 2479              		@ sp needed
 2480 0014 7047     		bx	lr
 2481              		.cfi_endproc
 2482              	.LFE155:
 2484              		.section	.rodata.run_task6_optimization_test.str1.4,"aMS",%progbits,1
 2485              		.align	2
 2486              	.LC1:
 2487 0000 2D4F6700 		.ascii	"-Og\000"
 2488              		.section	.text.run_task6_optimization_test,"ax",%progbits
 2489              		.align	1
 2490              		.global	run_task6_optimization_test
 2491              		.syntax unified
 2492              		.thumb
 2493              		.thumb_func
 2495              	run_task6_optimization_test:
 2496              	.LFB154:
 860:Core/Src/main.c ****     // START INDICATOR
 2497              		.loc 1 860 1 is_stmt 1 view -0
 2498              		.cfi_startproc
 2499              		@ args = 0, pretend = 0, frame = 48
 2500              		@ frame_needed = 0, uses_anonymous_args = 0
 2501 0000 2DE9F043 		push	{r4, r5, r6, r7, r8, r9, lr}
 2502              	.LCFI31:
 2503              		.cfi_def_cfa_offset 28
 2504              		.cfi_offset 4, -28
 2505              		.cfi_offset 5, -24
 2506              		.cfi_offset 6, -20
 2507              		.cfi_offset 7, -16
 2508              		.cfi_offset 8, -12
 2509              		.cfi_offset 9, -8
 2510              		.cfi_offset 14, -4
ARM GAS  C:\Users\BANELE~1\AppData\Local\Temp\cc8Zst6e.s 			page 71


 2511 0004 8DB0     		sub	sp, sp, #52
 2512              	.LCFI32:
 2513              		.cfi_def_cfa_offset 80
 862:Core/Src/main.c ****         HAL_GPIO_WritePin(GPIOB, GPIO_PIN_6, GPIO_PIN_SET);
 2514              		.loc 1 862 5 view .LVU633
 2515              	.LBB69:
 862:Core/Src/main.c ****         HAL_GPIO_WritePin(GPIOB, GPIO_PIN_6, GPIO_PIN_SET);
 2516              		.loc 1 862 10 view .LVU634
 2517              	.LVL250:
 862:Core/Src/main.c ****         HAL_GPIO_WritePin(GPIOB, GPIO_PIN_6, GPIO_PIN_SET);
 2518              		.loc 1 862 14 is_stmt 0 view .LVU635
 2519 0006 0024     		movs	r4, #0
 2520              	.LVL251:
 2521              	.L120:
 862:Core/Src/main.c ****         HAL_GPIO_WritePin(GPIOB, GPIO_PIN_6, GPIO_PIN_SET);
 2522              		.loc 1 862 23 is_stmt 1 discriminator 1 view .LVU636
 2523 0008 012C     		cmp	r4, #1
 2524 000a 12DC     		bgt	.L130
 863:Core/Src/main.c ****         HAL_Delay(200);
 2525              		.loc 1 863 9 view .LVU637
 2526 000c 3D4D     		ldr	r5, .L132
 2527 000e 0122     		movs	r2, #1
 2528 0010 4021     		movs	r1, #64
 2529 0012 2846     		mov	r0, r5
 2530 0014 FFF7FEFF 		bl	HAL_GPIO_WritePin
 2531              	.LVL252:
 864:Core/Src/main.c ****         HAL_GPIO_WritePin(GPIOB, GPIO_PIN_6, GPIO_PIN_RESET);
 2532              		.loc 1 864 9 view .LVU638
 2533 0018 C820     		movs	r0, #200
 2534 001a FFF7FEFF 		bl	HAL_Delay
 2535              	.LVL253:
 865:Core/Src/main.c ****         HAL_Delay(200);
 2536              		.loc 1 865 9 view .LVU639
 2537 001e 0022     		movs	r2, #0
 2538 0020 4021     		movs	r1, #64
 2539 0022 2846     		mov	r0, r5
 2540 0024 FFF7FEFF 		bl	HAL_GPIO_WritePin
 2541              	.LVL254:
 866:Core/Src/main.c ****     }
 2542              		.loc 1 866 9 view .LVU640
 2543 0028 C820     		movs	r0, #200
 2544 002a FFF7FEFF 		bl	HAL_Delay
 2545              	.LVL255:
 862:Core/Src/main.c ****         HAL_GPIO_WritePin(GPIOB, GPIO_PIN_6, GPIO_PIN_SET);
 2546              		.loc 1 862 29 discriminator 3 view .LVU641
 2547 002e 0134     		adds	r4, r4, #1
 2548              	.LVL256:
 862:Core/Src/main.c ****         HAL_GPIO_WritePin(GPIOB, GPIO_PIN_6, GPIO_PIN_SET);
 2549              		.loc 1 862 29 is_stmt 0 discriminator 3 view .LVU642
 2550 0030 EAE7     		b	.L120
 2551              	.L130:
 862:Core/Src/main.c ****         HAL_GPIO_WritePin(GPIOB, GPIO_PIN_6, GPIO_PIN_SET);
 2552              		.loc 1 862 29 discriminator 3 view .LVU643
 2553              	.LBE69:
 869:Core/Src/main.c ****         {128, 128}, {160, 160}, {192, 192}, {224, 224}, {256, 256}
 2554              		.loc 1 869 5 is_stmt 1 view .LVU644
 869:Core/Src/main.c ****         {128, 128}, {160, 160}, {192, 192}, {224, 224}, {256, 256}
ARM GAS  C:\Users\BANELE~1\AppData\Local\Temp\cc8Zst6e.s 			page 72


 2555              		.loc 1 869 20 is_stmt 0 view .LVU645
 2556 0032 01AC     		add	r4, sp, #4
 2557              	.LVL257:
 869:Core/Src/main.c ****         {128, 128}, {160, 160}, {192, 192}, {224, 224}, {256, 256}
 2558              		.loc 1 869 20 view .LVU646
 2559 0034 344D     		ldr	r5, .L132+4
 2560 0036 0FCD     		ldmia	r5!, {r0, r1, r2, r3}
 2561 0038 0FC4     		stmia	r4!, {r0, r1, r2, r3}
 2562 003a 2B68     		ldr	r3, [r5]
 2563 003c 2360     		str	r3, [r4]
 874:Core/Src/main.c ****     t6_binary_size = binary_size;
 2564              		.loc 1 874 5 is_stmt 1 view .LVU647
 874:Core/Src/main.c ****     t6_binary_size = binary_size;
 2565              		.loc 1 874 28 is_stmt 0 view .LVU648
 2566 003e FFF7FEFF 		bl	get_binary_size
 2567              	.LVL258:
 2568 0042 8046     		mov	r8, r0
 2569              	.LVL259:
 875:Core/Src/main.c ****     
 2570              		.loc 1 875 5 is_stmt 1 view .LVU649
 875:Core/Src/main.c ****     
 2571              		.loc 1 875 20 is_stmt 0 view .LVU650
 2572 0044 314B     		ldr	r3, .L132+8
 2573 0046 1860     		str	r0, [r3]
 878:Core/Src/main.c ****         uint16_t width = test_sizes[size_idx][0];
 2574              		.loc 1 878 5 is_stmt 1 view .LVU651
 2575              	.LBB70:
 878:Core/Src/main.c ****         uint16_t width = test_sizes[size_idx][0];
 2576              		.loc 1 878 10 view .LVU652
 2577              	.LVL260:
 878:Core/Src/main.c ****         uint16_t width = test_sizes[size_idx][0];
 2578              		.loc 1 878 14 is_stmt 0 view .LVU653
 2579 0048 0024     		movs	r4, #0
 878:Core/Src/main.c ****         uint16_t width = test_sizes[size_idx][0];
 2580              		.loc 1 878 5 view .LVU654
 2581 004a 11E0     		b	.L122
 2582              	.LVL261:
 2583              	.L125:
 2584              	.LBB71:
 2585              	.LBB72:
 2586              	.LBB73:
 906:Core/Src/main.c ****             }
 2587              		.loc 1 906 17 is_stmt 1 view .LVU655
 906:Core/Src/main.c ****             }
 2588              		.loc 1 906 42 is_stmt 0 view .LVU656
 2589 004c 3049     		ldr	r1, .L132+12
 2590 004e CA54     		strb	r2, [r1, r3]
 905:Core/Src/main.c ****                 t6_optimization_level[i] = OPT_LEVEL_STR[i];
 2591              		.loc 1 905 65 is_stmt 1 discriminator 4 view .LVU657
 2592 0050 0133     		adds	r3, r3, #1
 2593              	.LVL262:
 2594              	.L124:
 905:Core/Src/main.c ****                 t6_optimization_level[i] = OPT_LEVEL_STR[i];
 2595              		.loc 1 905 35 discriminator 1 view .LVU658
 2596 0052 022B     		cmp	r3, #2
 2597 0054 03DC     		bgt	.L123
 905:Core/Src/main.c ****                 t6_optimization_level[i] = OPT_LEVEL_STR[i];
ARM GAS  C:\Users\BANELE~1\AppData\Local\Temp\cc8Zst6e.s 			page 73


 2598              		.loc 1 905 51 is_stmt 0 discriminator 3 view .LVU659
 2599 0056 2F4A     		ldr	r2, .L132+16
 2600 0058 D25C     		ldrb	r2, [r2, r3]	@ zero_extendqisi2
 905:Core/Src/main.c ****                 t6_optimization_level[i] = OPT_LEVEL_STR[i];
 2601              		.loc 1 905 35 discriminator 3 view .LVU660
 2602 005a 002A     		cmp	r2, #0
 2603 005c F6D1     		bne	.L125
 2604              	.LVL263:
 2605              	.L123:
 905:Core/Src/main.c ****                 t6_optimization_level[i] = OPT_LEVEL_STR[i];
 2606              		.loc 1 905 35 discriminator 3 view .LVU661
 2607              	.LBE73:
 2608              	.LBE72:
 910:Core/Src/main.c ****         HAL_Delay(50);
 2609              		.loc 1 910 9 is_stmt 1 view .LVU662
 2610 005e 0022     		movs	r2, #0
 2611 0060 2946     		mov	r1, r5
 2612 0062 2848     		ldr	r0, .L132
 2613 0064 FFF7FEFF 		bl	HAL_GPIO_WritePin
 2614              	.LVL264:
 911:Core/Src/main.c ****     }
 2615              		.loc 1 911 9 view .LVU663
 2616 0068 3220     		movs	r0, #50
 2617 006a FFF7FEFF 		bl	HAL_Delay
 2618              	.LVL265:
 2619              	.LBE71:
 878:Core/Src/main.c ****         uint16_t width = test_sizes[size_idx][0];
 2620              		.loc 1 878 50 discriminator 2 view .LVU664
 2621 006e 0134     		adds	r4, r4, #1
 2622              	.LVL266:
 2623              	.L122:
 878:Core/Src/main.c ****         uint16_t width = test_sizes[size_idx][0];
 2624              		.loc 1 878 37 discriminator 1 view .LVU665
 2625 0070 042C     		cmp	r4, #4
 2626 0072 35DC     		bgt	.L131
 2627              	.LBB76:
 879:Core/Src/main.c ****         uint16_t height = test_sizes[size_idx][1];
 2628              		.loc 1 879 9 view .LVU666
 879:Core/Src/main.c ****         uint16_t height = test_sizes[size_idx][1];
 2629              		.loc 1 879 18 is_stmt 0 view .LVU667
 2630 0074 0CAB     		add	r3, sp, #48
 2631 0076 03EB8403 		add	r3, r3, r4, lsl #2
 2632 007a 33F82C7C 		ldrh	r7, [r3, #-44]
 2633              	.LVL267:
 880:Core/Src/main.c ****         
 2634              		.loc 1 880 9 is_stmt 1 view .LVU668
 880:Core/Src/main.c ****         
 2635              		.loc 1 880 18 is_stmt 0 view .LVU669
 2636 007e 33F82A9C 		ldrh	r9, [r3, #-42]
 2637              	.LVL268:
 883:Core/Src/main.c ****         
 2638              		.loc 1 883 9 is_stmt 1 view .LVU670
 2639 0082 651C     		adds	r5, r4, #1
 2640 0084 ADB2     		uxth	r5, r5
 2641 0086 0122     		movs	r2, #1
 2642 0088 2946     		mov	r1, r5
 2643 008a 1E48     		ldr	r0, .L132
ARM GAS  C:\Users\BANELE~1\AppData\Local\Temp\cc8Zst6e.s 			page 74


 2644 008c FFF7FEFF 		bl	HAL_GPIO_WritePin
 2645              	.LVL269:
 886:Core/Src/main.c ****         uint32_t start_time = HAL_GetTick();
 2646              		.loc 1 886 9 view .LVU671
 886:Core/Src/main.c ****         uint32_t start_time = HAL_GetTick();
 2647              		.loc 1 886 21 is_stmt 0 view .LVU672
 2648 0090 214B     		ldr	r3, .L132+20
 2649 0092 0022     		movs	r2, #0
 2650 0094 5A60     		str	r2, [r3, #4]
 2651              	.LVL270:
 887:Core/Src/main.c ****         
 2652              		.loc 1 887 9 is_stmt 1 view .LVU673
 887:Core/Src/main.c ****         
 2653              		.loc 1 887 31 is_stmt 0 view .LVU674
 2654 0096 FFF7FEFF 		bl	HAL_GetTick
 2655              	.LVL271:
 2656 009a 0646     		mov	r6, r0
 2657              	.LVL272:
 889:Core/Src/main.c ****         
 2658              		.loc 1 889 9 is_stmt 1 view .LVU675
 889:Core/Src/main.c ****         
 2659              		.loc 1 889 29 is_stmt 0 view .LVU676
 2660 009c 6422     		movs	r2, #100
 2661 009e 4946     		mov	r1, r9
 2662 00a0 3846     		mov	r0, r7
 2663              	.LVL273:
 889:Core/Src/main.c ****         
 2664              		.loc 1 889 29 view .LVU677
 2665 00a2 FFF7FEFF 		bl	calculate_mandelbrot_fixed_point_arithmetic
 2666              	.LVL274:
 2667 00a6 0746     		mov	r7, r0
 2668              	.LVL275:
 889:Core/Src/main.c ****         
 2669              		.loc 1 889 29 view .LVU678
 2670 00a8 8946     		mov	r9, r1
 2671              	.LVL276:
 891:Core/Src/main.c ****         uint32_t exec_time_ms = end_time - start_time;
 2672              		.loc 1 891 9 is_stmt 1 view .LVU679
 891:Core/Src/main.c ****         uint32_t exec_time_ms = end_time - start_time;
 2673              		.loc 1 891 29 is_stmt 0 view .LVU680
 2674 00aa FFF7FEFF 		bl	HAL_GetTick
 2675              	.LVL277:
 892:Core/Src/main.c ****         
 2676              		.loc 1 892 9 is_stmt 1 view .LVU681
 892:Core/Src/main.c ****         
 2677              		.loc 1 892 18 is_stmt 0 view .LVU682
 2678 00ae 861B     		subs	r6, r0, r6
 2679              	.LVL278:
 895:Core/Src/main.c ****             task6_results = (Task6Result){
 2680              		.loc 1 895 9 is_stmt 1 view .LVU683
 895:Core/Src/main.c ****             task6_results = (Task6Result){
 2681              		.loc 1 895 12 is_stmt 0 view .LVU684
 2682 00b0 002C     		cmp	r4, #0
 2683 00b2 D4D1     		bne	.L123
 2684              	.LBB75:
 896:Core/Src/main.c ****                 .binary_size = binary_size,
 2685              		.loc 1 896 13 is_stmt 1 view .LVU685
ARM GAS  C:\Users\BANELE~1\AppData\Local\Temp\cc8Zst6e.s 			page 75


 896:Core/Src/main.c ****                 .binary_size = binary_size,
 2686              		.loc 1 896 27 is_stmt 0 view .LVU686
 2687 00b4 CDF81880 		str	r8, [sp, #24]
 2688 00b8 0796     		str	r6, [sp, #28]
 2689 00ba 0897     		str	r7, [sp, #32]
 2690 00bc CDF82490 		str	r9, [sp, #36]
 2691 00c0 144B     		ldr	r3, .L132+16
 2692 00c2 0A93     		str	r3, [sp, #40]
 2693 00c4 154F     		ldr	r7, .L132+24
 2694              	.LVL279:
 896:Core/Src/main.c ****                 .binary_size = binary_size,
 2695              		.loc 1 896 27 view .LVU687
 2696 00c6 0DF1180C 		add	ip, sp, #24
 2697 00ca BCE80F00 		ldmia	ip!, {r0, r1, r2, r3}
 2698              	.LVL280:
 896:Core/Src/main.c ****                 .binary_size = binary_size,
 2699              		.loc 1 896 27 view .LVU688
 2700 00ce 0FC7     		stmia	r7!, {r0, r1, r2, r3}
 2701 00d0 9CE80300 		ldm	ip, {r0, r1}
 2702 00d4 87E80300 		stm	r7, {r0, r1}
 903:Core/Src/main.c ****             // Copy optimization level string
 2703              		.loc 1 903 13 is_stmt 1 view .LVU689
 903:Core/Src/main.c ****             // Copy optimization level string
 2704              		.loc 1 903 26 is_stmt 0 view .LVU690
 2705 00d8 114B     		ldr	r3, .L132+28
 2706 00da 1E60     		str	r6, [r3]
 905:Core/Src/main.c ****                 t6_optimization_level[i] = OPT_LEVEL_STR[i];
 2707              		.loc 1 905 13 is_stmt 1 view .LVU691
 2708              	.LBB74:
 905:Core/Src/main.c ****                 t6_optimization_level[i] = OPT_LEVEL_STR[i];
 2709              		.loc 1 905 18 view .LVU692
 2710              	.LVL281:
 905:Core/Src/main.c ****                 t6_optimization_level[i] = OPT_LEVEL_STR[i];
 2711              		.loc 1 905 22 is_stmt 0 view .LVU693
 2712 00dc 2346     		mov	r3, r4
 905:Core/Src/main.c ****                 t6_optimization_level[i] = OPT_LEVEL_STR[i];
 2713              		.loc 1 905 13 view .LVU694
 2714 00de B8E7     		b	.L124
 2715              	.LVL282:
 2716              	.L131:
 905:Core/Src/main.c ****                 t6_optimization_level[i] = OPT_LEVEL_STR[i];
 2717              		.loc 1 905 13 view .LVU695
 2718              	.LBE74:
 2719              	.LBE75:
 2720              	.LBE76:
 2721              	.LBE70:
 2722              	.LBB77:
 915:Core/Src/main.c ****         HAL_GPIO_TogglePin(GPIOB, GPIO_PIN_6);
 2723              		.loc 1 915 14 view .LVU696
 2724 00e0 0024     		movs	r4, #0
 2725              	.LVL283:
 915:Core/Src/main.c ****         HAL_GPIO_TogglePin(GPIOB, GPIO_PIN_6);
 2726              		.loc 1 915 14 view .LVU697
 2727 00e2 07E0     		b	.L127
 2728              	.LVL284:
 2729              	.L128:
 916:Core/Src/main.c ****         HAL_Delay(100);
ARM GAS  C:\Users\BANELE~1\AppData\Local\Temp\cc8Zst6e.s 			page 76


 2730              		.loc 1 916 9 is_stmt 1 view .LVU698
 2731 00e4 4021     		movs	r1, #64
 2732 00e6 0748     		ldr	r0, .L132
 2733 00e8 FFF7FEFF 		bl	HAL_GPIO_TogglePin
 2734              	.LVL285:
 917:Core/Src/main.c ****     }
 2735              		.loc 1 917 9 view .LVU699
 2736 00ec 6420     		movs	r0, #100
 2737 00ee FFF7FEFF 		bl	HAL_Delay
 2738              	.LVL286:
 915:Core/Src/main.c ****         HAL_GPIO_TogglePin(GPIOB, GPIO_PIN_6);
 2739              		.loc 1 915 29 discriminator 3 view .LVU700
 2740 00f2 0134     		adds	r4, r4, #1
 2741              	.LVL287:
 2742              	.L127:
 915:Core/Src/main.c ****         HAL_GPIO_TogglePin(GPIOB, GPIO_PIN_6);
 2743              		.loc 1 915 23 discriminator 1 view .LVU701
 2744 00f4 032C     		cmp	r4, #3
 2745 00f6 F5DD     		ble	.L128
 2746              	.LBE77:
 920:Core/Src/main.c **** }
 2747              		.loc 1 920 5 view .LVU702
 920:Core/Src/main.c **** }
 2748              		.loc 1 920 16 is_stmt 0 view .LVU703
 2749 00f8 0A4B     		ldr	r3, .L132+32
 2750 00fa 0122     		movs	r2, #1
 2751 00fc 1A70     		strb	r2, [r3]
 921:Core/Src/main.c **** 
 2752              		.loc 1 921 1 view .LVU704
 2753 00fe 0DB0     		add	sp, sp, #52
 2754              	.LCFI33:
 2755              		.cfi_def_cfa_offset 28
 2756              		@ sp needed
 2757 0100 BDE8F083 		pop	{r4, r5, r6, r7, r8, r9, pc}
 2758              	.LVL288:
 2759              	.L133:
 921:Core/Src/main.c **** 
 2760              		.loc 1 921 1 view .LVU705
 2761              		.align	2
 2762              	.L132:
 2763 0104 00040240 		.word	1073873920
 2764 0108 00000000 		.word	.LANCHOR0
 2765 010c 00000000 		.word	t6_binary_size
 2766 0110 00000000 		.word	t6_optimization_level
 2767 0114 00000000 		.word	.LC1
 2768 0118 001000E0 		.word	-536866816
 2769 011c 00000000 		.word	task6_results
 2770 0120 00000000 		.word	t6_exec_time
 2771 0124 00000000 		.word	task6_done
 2772              		.cfi_endproc
 2773              	.LFE154:
 2775              		.section	.text.Error_Handler,"ax",%progbits
 2776              		.align	1
 2777              		.global	Error_Handler
 2778              		.syntax unified
 2779              		.thumb
 2780              		.thumb_func
ARM GAS  C:\Users\BANELE~1\AppData\Local\Temp\cc8Zst6e.s 			page 77


 2782              	Error_Handler:
 2783              	.LFB156:
 935:Core/Src/main.c **** /* USER CODE END 4 */
 936:Core/Src/main.c **** 
 937:Core/Src/main.c **** /**
 938:Core/Src/main.c ****   * @brief  This function is executed in case of error occurrence.
 939:Core/Src/main.c ****   * @retval None
 940:Core/Src/main.c ****   */
 941:Core/Src/main.c **** void Error_Handler(void)
 942:Core/Src/main.c **** {
 2784              		.loc 1 942 1 is_stmt 1 view -0
 2785              		.cfi_startproc
 2786              		@ Volatile: function does not return.
 2787              		@ args = 0, pretend = 0, frame = 0
 2788              		@ frame_needed = 0, uses_anonymous_args = 0
 2789              		@ link register save eliminated.
 943:Core/Src/main.c ****   /* USER CODE BEGIN Error_Handler_Debug */
 944:Core/Src/main.c ****   /* User can add his own implementation to report the HAL error return state */
 945:Core/Src/main.c ****   __disable_irq();
 2790              		.loc 1 945 3 view .LVU707
 2791              	.LBB78:
 2792              	.LBI78:
 272:Drivers/CMSIS/Include/cmsis_gcc.h **** }
 273:Drivers/CMSIS/Include/cmsis_gcc.h **** 
 274:Drivers/CMSIS/Include/cmsis_gcc.h **** 
 275:Drivers/CMSIS/Include/cmsis_gcc.h **** /**
 276:Drivers/CMSIS/Include/cmsis_gcc.h ****   \brief   Data Memory Barrier
 277:Drivers/CMSIS/Include/cmsis_gcc.h ****   \details Ensures the apparent order of the explicit memory operations before
 278:Drivers/CMSIS/Include/cmsis_gcc.h ****            and after the instruction, without ensuring their completion.
 279:Drivers/CMSIS/Include/cmsis_gcc.h ****  */
 280:Drivers/CMSIS/Include/cmsis_gcc.h **** __STATIC_FORCEINLINE void __DMB(void)
 281:Drivers/CMSIS/Include/cmsis_gcc.h **** {
 282:Drivers/CMSIS/Include/cmsis_gcc.h ****   __ASM volatile ("dmb 0xF":::"memory");
 283:Drivers/CMSIS/Include/cmsis_gcc.h **** }
 284:Drivers/CMSIS/Include/cmsis_gcc.h **** 
 285:Drivers/CMSIS/Include/cmsis_gcc.h **** 
 286:Drivers/CMSIS/Include/cmsis_gcc.h **** /**
 287:Drivers/CMSIS/Include/cmsis_gcc.h ****   \brief   Reverse byte order (32 bit)
 288:Drivers/CMSIS/Include/cmsis_gcc.h ****   \details Reverses the byte order in unsigned integer value. For example, 0x12345678 becomes 0x785
 289:Drivers/CMSIS/Include/cmsis_gcc.h ****   \param [in]    value  Value to reverse
 290:Drivers/CMSIS/Include/cmsis_gcc.h ****   \return               Reversed value
 291:Drivers/CMSIS/Include/cmsis_gcc.h ****  */
 292:Drivers/CMSIS/Include/cmsis_gcc.h **** __STATIC_FORCEINLINE uint32_t __REV(uint32_t value)
 293:Drivers/CMSIS/Include/cmsis_gcc.h **** {
 294:Drivers/CMSIS/Include/cmsis_gcc.h **** #if (__GNUC__ > 4) || (__GNUC__ == 4 && __GNUC_MINOR__ >= 5)
 295:Drivers/CMSIS/Include/cmsis_gcc.h ****   return __builtin_bswap32(value);
 296:Drivers/CMSIS/Include/cmsis_gcc.h **** #else
 297:Drivers/CMSIS/Include/cmsis_gcc.h ****   uint32_t result;
 298:Drivers/CMSIS/Include/cmsis_gcc.h **** 
 299:Drivers/CMSIS/Include/cmsis_gcc.h ****   __ASM ("rev %0, %1" : __CMSIS_GCC_OUT_REG (result) : __CMSIS_GCC_USE_REG (value) );
 300:Drivers/CMSIS/Include/cmsis_gcc.h ****   return result;
 301:Drivers/CMSIS/Include/cmsis_gcc.h **** #endif
 302:Drivers/CMSIS/Include/cmsis_gcc.h **** }
 303:Drivers/CMSIS/Include/cmsis_gcc.h **** 
 304:Drivers/CMSIS/Include/cmsis_gcc.h **** 
 305:Drivers/CMSIS/Include/cmsis_gcc.h **** /**
 306:Drivers/CMSIS/Include/cmsis_gcc.h ****   \brief   Reverse byte order (16 bit)
ARM GAS  C:\Users\BANELE~1\AppData\Local\Temp\cc8Zst6e.s 			page 78


 307:Drivers/CMSIS/Include/cmsis_gcc.h ****   \details Reverses the byte order within each halfword of a word. For example, 0x12345678 becomes 
 308:Drivers/CMSIS/Include/cmsis_gcc.h ****   \param [in]    value  Value to reverse
 309:Drivers/CMSIS/Include/cmsis_gcc.h ****   \return               Reversed value
 310:Drivers/CMSIS/Include/cmsis_gcc.h ****  */
 311:Drivers/CMSIS/Include/cmsis_gcc.h **** __STATIC_FORCEINLINE uint32_t __REV16(uint32_t value)
 312:Drivers/CMSIS/Include/cmsis_gcc.h **** {
 313:Drivers/CMSIS/Include/cmsis_gcc.h ****   uint32_t result;
 314:Drivers/CMSIS/Include/cmsis_gcc.h **** 
 315:Drivers/CMSIS/Include/cmsis_gcc.h ****   __ASM ("rev16 %0, %1" : __CMSIS_GCC_OUT_REG (result) : __CMSIS_GCC_USE_REG (value) );
 316:Drivers/CMSIS/Include/cmsis_gcc.h ****   return result;
 317:Drivers/CMSIS/Include/cmsis_gcc.h **** }
 318:Drivers/CMSIS/Include/cmsis_gcc.h **** 
 319:Drivers/CMSIS/Include/cmsis_gcc.h **** 
 320:Drivers/CMSIS/Include/cmsis_gcc.h **** /**
 321:Drivers/CMSIS/Include/cmsis_gcc.h ****   \brief   Reverse byte order (16 bit)
 322:Drivers/CMSIS/Include/cmsis_gcc.h ****   \details Reverses the byte order in a 16-bit value and returns the signed 16-bit result. For exam
 323:Drivers/CMSIS/Include/cmsis_gcc.h ****   \param [in]    value  Value to reverse
 324:Drivers/CMSIS/Include/cmsis_gcc.h ****   \return               Reversed value
 325:Drivers/CMSIS/Include/cmsis_gcc.h ****  */
 326:Drivers/CMSIS/Include/cmsis_gcc.h **** __STATIC_FORCEINLINE int16_t __REVSH(int16_t value)
 327:Drivers/CMSIS/Include/cmsis_gcc.h **** {
 328:Drivers/CMSIS/Include/cmsis_gcc.h **** #if (__GNUC__ > 4) || (__GNUC__ == 4 && __GNUC_MINOR__ >= 8)
 329:Drivers/CMSIS/Include/cmsis_gcc.h ****   return (int16_t)__builtin_bswap16(value);
 330:Drivers/CMSIS/Include/cmsis_gcc.h **** #else
 331:Drivers/CMSIS/Include/cmsis_gcc.h ****   int16_t result;
 332:Drivers/CMSIS/Include/cmsis_gcc.h **** 
 333:Drivers/CMSIS/Include/cmsis_gcc.h ****   __ASM ("revsh %0, %1" : __CMSIS_GCC_OUT_REG (result) : __CMSIS_GCC_USE_REG (value) );
 334:Drivers/CMSIS/Include/cmsis_gcc.h ****   return result;
 335:Drivers/CMSIS/Include/cmsis_gcc.h **** #endif
 336:Drivers/CMSIS/Include/cmsis_gcc.h **** }
 337:Drivers/CMSIS/Include/cmsis_gcc.h **** 
 338:Drivers/CMSIS/Include/cmsis_gcc.h **** 
 339:Drivers/CMSIS/Include/cmsis_gcc.h **** /**
 340:Drivers/CMSIS/Include/cmsis_gcc.h ****   \brief   Rotate Right in unsigned value (32 bit)
 341:Drivers/CMSIS/Include/cmsis_gcc.h ****   \details Rotate Right (immediate) provides the value of the contents of a register rotated by a v
 342:Drivers/CMSIS/Include/cmsis_gcc.h ****   \param [in]    op1  Value to rotate
 343:Drivers/CMSIS/Include/cmsis_gcc.h ****   \param [in]    op2  Number of Bits to rotate
 344:Drivers/CMSIS/Include/cmsis_gcc.h ****   \return               Rotated value
 345:Drivers/CMSIS/Include/cmsis_gcc.h ****  */
 346:Drivers/CMSIS/Include/cmsis_gcc.h **** __STATIC_FORCEINLINE uint32_t __ROR(uint32_t op1, uint32_t op2)
 347:Drivers/CMSIS/Include/cmsis_gcc.h **** {
 348:Drivers/CMSIS/Include/cmsis_gcc.h ****   op2 %= 32U;
 349:Drivers/CMSIS/Include/cmsis_gcc.h ****   if (op2 == 0U)
 350:Drivers/CMSIS/Include/cmsis_gcc.h ****   {
 351:Drivers/CMSIS/Include/cmsis_gcc.h ****     return op1;
 352:Drivers/CMSIS/Include/cmsis_gcc.h ****   }
 353:Drivers/CMSIS/Include/cmsis_gcc.h ****   return (op1 >> op2) | (op1 << (32U - op2));
 354:Drivers/CMSIS/Include/cmsis_gcc.h **** }
 355:Drivers/CMSIS/Include/cmsis_gcc.h **** 
 356:Drivers/CMSIS/Include/cmsis_gcc.h **** 
 357:Drivers/CMSIS/Include/cmsis_gcc.h **** /**
 358:Drivers/CMSIS/Include/cmsis_gcc.h ****   \brief   Breakpoint
 359:Drivers/CMSIS/Include/cmsis_gcc.h ****   \details Causes the processor to enter Debug state.
 360:Drivers/CMSIS/Include/cmsis_gcc.h ****            Debug tools can use this to investigate system state when the instruction at a particula
 361:Drivers/CMSIS/Include/cmsis_gcc.h ****   \param [in]    value  is ignored by the processor.
 362:Drivers/CMSIS/Include/cmsis_gcc.h ****                  If required, a debugger can use it to store additional information about the break
 363:Drivers/CMSIS/Include/cmsis_gcc.h ****  */
ARM GAS  C:\Users\BANELE~1\AppData\Local\Temp\cc8Zst6e.s 			page 79


 364:Drivers/CMSIS/Include/cmsis_gcc.h **** #define __BKPT(value)                       __ASM volatile ("bkpt "#value)
 365:Drivers/CMSIS/Include/cmsis_gcc.h **** 
 366:Drivers/CMSIS/Include/cmsis_gcc.h **** 
 367:Drivers/CMSIS/Include/cmsis_gcc.h **** /**
 368:Drivers/CMSIS/Include/cmsis_gcc.h ****   \brief   Reverse bit order of value
 369:Drivers/CMSIS/Include/cmsis_gcc.h ****   \details Reverses the bit order of the given value.
 370:Drivers/CMSIS/Include/cmsis_gcc.h ****   \param [in]    value  Value to reverse
 371:Drivers/CMSIS/Include/cmsis_gcc.h ****   \return               Reversed value
 372:Drivers/CMSIS/Include/cmsis_gcc.h ****  */
 373:Drivers/CMSIS/Include/cmsis_gcc.h **** __STATIC_FORCEINLINE uint32_t __RBIT(uint32_t value)
 374:Drivers/CMSIS/Include/cmsis_gcc.h **** {
 375:Drivers/CMSIS/Include/cmsis_gcc.h ****   uint32_t result;
 376:Drivers/CMSIS/Include/cmsis_gcc.h **** 
 377:Drivers/CMSIS/Include/cmsis_gcc.h **** #if ((defined (__ARM_ARCH_7M__      ) && (__ARM_ARCH_7M__      == 1)) || \
 378:Drivers/CMSIS/Include/cmsis_gcc.h ****      (defined (__ARM_ARCH_7EM__     ) && (__ARM_ARCH_7EM__     == 1)) || \
 379:Drivers/CMSIS/Include/cmsis_gcc.h ****      (defined (__ARM_ARCH_8M_MAIN__ ) && (__ARM_ARCH_8M_MAIN__ == 1))    )
 380:Drivers/CMSIS/Include/cmsis_gcc.h ****    __ASM ("rbit %0, %1" : "=r" (result) : "r" (value) );
 381:Drivers/CMSIS/Include/cmsis_gcc.h **** #else
 382:Drivers/CMSIS/Include/cmsis_gcc.h ****   uint32_t s = (4U /*sizeof(v)*/ * 8U) - 1U; /* extra shift needed at end */
 383:Drivers/CMSIS/Include/cmsis_gcc.h **** 
 384:Drivers/CMSIS/Include/cmsis_gcc.h ****   result = value;                      /* r will be reversed bits of v; first get LSB of v */
 385:Drivers/CMSIS/Include/cmsis_gcc.h ****   for (value >>= 1U; value != 0U; value >>= 1U)
 386:Drivers/CMSIS/Include/cmsis_gcc.h ****   {
 387:Drivers/CMSIS/Include/cmsis_gcc.h ****     result <<= 1U;
 388:Drivers/CMSIS/Include/cmsis_gcc.h ****     result |= value & 1U;
 389:Drivers/CMSIS/Include/cmsis_gcc.h ****     s--;
 390:Drivers/CMSIS/Include/cmsis_gcc.h ****   }
 391:Drivers/CMSIS/Include/cmsis_gcc.h ****   result <<= s;                        /* shift when v's highest bits are zero */
 392:Drivers/CMSIS/Include/cmsis_gcc.h **** #endif
 393:Drivers/CMSIS/Include/cmsis_gcc.h ****   return result;
 394:Drivers/CMSIS/Include/cmsis_gcc.h **** }
 395:Drivers/CMSIS/Include/cmsis_gcc.h **** 
 396:Drivers/CMSIS/Include/cmsis_gcc.h **** 
 397:Drivers/CMSIS/Include/cmsis_gcc.h **** /**
 398:Drivers/CMSIS/Include/cmsis_gcc.h ****   \brief   Count leading zeros
 399:Drivers/CMSIS/Include/cmsis_gcc.h ****   \details Counts the number of leading zeros of a data value.
 400:Drivers/CMSIS/Include/cmsis_gcc.h ****   \param [in]  value  Value to count the leading zeros
 401:Drivers/CMSIS/Include/cmsis_gcc.h ****   \return             number of leading zeros in value
 402:Drivers/CMSIS/Include/cmsis_gcc.h ****  */
 403:Drivers/CMSIS/Include/cmsis_gcc.h **** __STATIC_FORCEINLINE uint8_t __CLZ(uint32_t value)
 404:Drivers/CMSIS/Include/cmsis_gcc.h **** {
 405:Drivers/CMSIS/Include/cmsis_gcc.h ****   /* Even though __builtin_clz produces a CLZ instruction on ARM, formally
 406:Drivers/CMSIS/Include/cmsis_gcc.h ****      __builtin_clz(0) is undefined behaviour, so handle this case specially.
 407:Drivers/CMSIS/Include/cmsis_gcc.h ****      This guarantees ARM-compatible results if happening to compile on a non-ARM
 408:Drivers/CMSIS/Include/cmsis_gcc.h ****      target, and ensures the compiler doesn't decide to activate any
 409:Drivers/CMSIS/Include/cmsis_gcc.h ****      optimisations using the logic "value was passed to __builtin_clz, so it
 410:Drivers/CMSIS/Include/cmsis_gcc.h ****      is non-zero".
 411:Drivers/CMSIS/Include/cmsis_gcc.h ****      ARM GCC 7.3 and possibly earlier will optimise this test away, leaving a
 412:Drivers/CMSIS/Include/cmsis_gcc.h ****      single CLZ instruction.
 413:Drivers/CMSIS/Include/cmsis_gcc.h ****    */
 414:Drivers/CMSIS/Include/cmsis_gcc.h ****   if (value == 0U)
 415:Drivers/CMSIS/Include/cmsis_gcc.h ****   {
 416:Drivers/CMSIS/Include/cmsis_gcc.h ****     return 32U;
 417:Drivers/CMSIS/Include/cmsis_gcc.h ****   }
 418:Drivers/CMSIS/Include/cmsis_gcc.h ****   return __builtin_clz(value);
 419:Drivers/CMSIS/Include/cmsis_gcc.h **** }
 420:Drivers/CMSIS/Include/cmsis_gcc.h **** 
ARM GAS  C:\Users\BANELE~1\AppData\Local\Temp\cc8Zst6e.s 			page 80


 421:Drivers/CMSIS/Include/cmsis_gcc.h **** 
 422:Drivers/CMSIS/Include/cmsis_gcc.h **** #if ((defined (__ARM_ARCH_7M__      ) && (__ARM_ARCH_7M__      == 1)) || \
 423:Drivers/CMSIS/Include/cmsis_gcc.h ****      (defined (__ARM_ARCH_7EM__     ) && (__ARM_ARCH_7EM__     == 1)) || \
 424:Drivers/CMSIS/Include/cmsis_gcc.h ****      (defined (__ARM_ARCH_8M_MAIN__ ) && (__ARM_ARCH_8M_MAIN__ == 1)) || \
 425:Drivers/CMSIS/Include/cmsis_gcc.h ****      (defined (__ARM_ARCH_8M_BASE__ ) && (__ARM_ARCH_8M_BASE__ == 1))    )
 426:Drivers/CMSIS/Include/cmsis_gcc.h **** /**
 427:Drivers/CMSIS/Include/cmsis_gcc.h ****   \brief   LDR Exclusive (8 bit)
 428:Drivers/CMSIS/Include/cmsis_gcc.h ****   \details Executes a exclusive LDR instruction for 8 bit value.
 429:Drivers/CMSIS/Include/cmsis_gcc.h ****   \param [in]    ptr  Pointer to data
 430:Drivers/CMSIS/Include/cmsis_gcc.h ****   \return             value of type uint8_t at (*ptr)
 431:Drivers/CMSIS/Include/cmsis_gcc.h ****  */
 432:Drivers/CMSIS/Include/cmsis_gcc.h **** __STATIC_FORCEINLINE uint8_t __LDREXB(volatile uint8_t *addr)
 433:Drivers/CMSIS/Include/cmsis_gcc.h **** {
 434:Drivers/CMSIS/Include/cmsis_gcc.h ****     uint32_t result;
 435:Drivers/CMSIS/Include/cmsis_gcc.h **** 
 436:Drivers/CMSIS/Include/cmsis_gcc.h **** #if (__GNUC__ > 4) || (__GNUC__ == 4 && __GNUC_MINOR__ >= 8)
 437:Drivers/CMSIS/Include/cmsis_gcc.h ****    __ASM volatile ("ldrexb %0, %1" : "=r" (result) : "Q" (*addr) );
 438:Drivers/CMSIS/Include/cmsis_gcc.h **** #else
 439:Drivers/CMSIS/Include/cmsis_gcc.h ****     /* Prior to GCC 4.8, "Q" will be expanded to [rx, #0] which is not
 440:Drivers/CMSIS/Include/cmsis_gcc.h ****        accepted by assembler. So has to use following less efficient pattern.
 441:Drivers/CMSIS/Include/cmsis_gcc.h ****     */
 442:Drivers/CMSIS/Include/cmsis_gcc.h ****    __ASM volatile ("ldrexb %0, [%1]" : "=r" (result) : "r" (addr) : "memory" );
 443:Drivers/CMSIS/Include/cmsis_gcc.h **** #endif
 444:Drivers/CMSIS/Include/cmsis_gcc.h ****    return ((uint8_t) result);    /* Add explicit type cast here */
 445:Drivers/CMSIS/Include/cmsis_gcc.h **** }
 446:Drivers/CMSIS/Include/cmsis_gcc.h **** 
 447:Drivers/CMSIS/Include/cmsis_gcc.h **** 
 448:Drivers/CMSIS/Include/cmsis_gcc.h **** /**
 449:Drivers/CMSIS/Include/cmsis_gcc.h ****   \brief   LDR Exclusive (16 bit)
 450:Drivers/CMSIS/Include/cmsis_gcc.h ****   \details Executes a exclusive LDR instruction for 16 bit values.
 451:Drivers/CMSIS/Include/cmsis_gcc.h ****   \param [in]    ptr  Pointer to data
 452:Drivers/CMSIS/Include/cmsis_gcc.h ****   \return        value of type uint16_t at (*ptr)
 453:Drivers/CMSIS/Include/cmsis_gcc.h ****  */
 454:Drivers/CMSIS/Include/cmsis_gcc.h **** __STATIC_FORCEINLINE uint16_t __LDREXH(volatile uint16_t *addr)
 455:Drivers/CMSIS/Include/cmsis_gcc.h **** {
 456:Drivers/CMSIS/Include/cmsis_gcc.h ****     uint32_t result;
 457:Drivers/CMSIS/Include/cmsis_gcc.h **** 
 458:Drivers/CMSIS/Include/cmsis_gcc.h **** #if (__GNUC__ > 4) || (__GNUC__ == 4 && __GNUC_MINOR__ >= 8)
 459:Drivers/CMSIS/Include/cmsis_gcc.h ****    __ASM volatile ("ldrexh %0, %1" : "=r" (result) : "Q" (*addr) );
 460:Drivers/CMSIS/Include/cmsis_gcc.h **** #else
 461:Drivers/CMSIS/Include/cmsis_gcc.h ****     /* Prior to GCC 4.8, "Q" will be expanded to [rx, #0] which is not
 462:Drivers/CMSIS/Include/cmsis_gcc.h ****        accepted by assembler. So has to use following less efficient pattern.
 463:Drivers/CMSIS/Include/cmsis_gcc.h ****     */
 464:Drivers/CMSIS/Include/cmsis_gcc.h ****    __ASM volatile ("ldrexh %0, [%1]" : "=r" (result) : "r" (addr) : "memory" );
 465:Drivers/CMSIS/Include/cmsis_gcc.h **** #endif
 466:Drivers/CMSIS/Include/cmsis_gcc.h ****    return ((uint16_t) result);    /* Add explicit type cast here */
 467:Drivers/CMSIS/Include/cmsis_gcc.h **** }
 468:Drivers/CMSIS/Include/cmsis_gcc.h **** 
 469:Drivers/CMSIS/Include/cmsis_gcc.h **** 
 470:Drivers/CMSIS/Include/cmsis_gcc.h **** /**
 471:Drivers/CMSIS/Include/cmsis_gcc.h ****   \brief   LDR Exclusive (32 bit)
 472:Drivers/CMSIS/Include/cmsis_gcc.h ****   \details Executes a exclusive LDR instruction for 32 bit values.
 473:Drivers/CMSIS/Include/cmsis_gcc.h ****   \param [in]    ptr  Pointer to data
 474:Drivers/CMSIS/Include/cmsis_gcc.h ****   \return        value of type uint32_t at (*ptr)
 475:Drivers/CMSIS/Include/cmsis_gcc.h ****  */
 476:Drivers/CMSIS/Include/cmsis_gcc.h **** __STATIC_FORCEINLINE uint32_t __LDREXW(volatile uint32_t *addr)
 477:Drivers/CMSIS/Include/cmsis_gcc.h **** {
ARM GAS  C:\Users\BANELE~1\AppData\Local\Temp\cc8Zst6e.s 			page 81


 478:Drivers/CMSIS/Include/cmsis_gcc.h ****     uint32_t result;
 479:Drivers/CMSIS/Include/cmsis_gcc.h **** 
 480:Drivers/CMSIS/Include/cmsis_gcc.h ****    __ASM volatile ("ldrex %0, %1" : "=r" (result) : "Q" (*addr) );
 481:Drivers/CMSIS/Include/cmsis_gcc.h ****    return(result);
 482:Drivers/CMSIS/Include/cmsis_gcc.h **** }
 483:Drivers/CMSIS/Include/cmsis_gcc.h **** 
 484:Drivers/CMSIS/Include/cmsis_gcc.h **** 
 485:Drivers/CMSIS/Include/cmsis_gcc.h **** /**
 486:Drivers/CMSIS/Include/cmsis_gcc.h ****   \brief   STR Exclusive (8 bit)
 487:Drivers/CMSIS/Include/cmsis_gcc.h ****   \details Executes a exclusive STR instruction for 8 bit values.
 488:Drivers/CMSIS/Include/cmsis_gcc.h ****   \param [in]  value  Value to store
 489:Drivers/CMSIS/Include/cmsis_gcc.h ****   \param [in]    ptr  Pointer to location
 490:Drivers/CMSIS/Include/cmsis_gcc.h ****   \return          0  Function succeeded
 491:Drivers/CMSIS/Include/cmsis_gcc.h ****   \return          1  Function failed
 492:Drivers/CMSIS/Include/cmsis_gcc.h ****  */
 493:Drivers/CMSIS/Include/cmsis_gcc.h **** __STATIC_FORCEINLINE uint32_t __STREXB(uint8_t value, volatile uint8_t *addr)
 494:Drivers/CMSIS/Include/cmsis_gcc.h **** {
 495:Drivers/CMSIS/Include/cmsis_gcc.h ****    uint32_t result;
 496:Drivers/CMSIS/Include/cmsis_gcc.h **** 
 497:Drivers/CMSIS/Include/cmsis_gcc.h ****    __ASM volatile ("strexb %0, %2, %1" : "=&r" (result), "=Q" (*addr) : "r" ((uint32_t)value) );
 498:Drivers/CMSIS/Include/cmsis_gcc.h ****    return(result);
 499:Drivers/CMSIS/Include/cmsis_gcc.h **** }
 500:Drivers/CMSIS/Include/cmsis_gcc.h **** 
 501:Drivers/CMSIS/Include/cmsis_gcc.h **** 
 502:Drivers/CMSIS/Include/cmsis_gcc.h **** /**
 503:Drivers/CMSIS/Include/cmsis_gcc.h ****   \brief   STR Exclusive (16 bit)
 504:Drivers/CMSIS/Include/cmsis_gcc.h ****   \details Executes a exclusive STR instruction for 16 bit values.
 505:Drivers/CMSIS/Include/cmsis_gcc.h ****   \param [in]  value  Value to store
 506:Drivers/CMSIS/Include/cmsis_gcc.h ****   \param [in]    ptr  Pointer to location
 507:Drivers/CMSIS/Include/cmsis_gcc.h ****   \return          0  Function succeeded
 508:Drivers/CMSIS/Include/cmsis_gcc.h ****   \return          1  Function failed
 509:Drivers/CMSIS/Include/cmsis_gcc.h ****  */
 510:Drivers/CMSIS/Include/cmsis_gcc.h **** __STATIC_FORCEINLINE uint32_t __STREXH(uint16_t value, volatile uint16_t *addr)
 511:Drivers/CMSIS/Include/cmsis_gcc.h **** {
 512:Drivers/CMSIS/Include/cmsis_gcc.h ****    uint32_t result;
 513:Drivers/CMSIS/Include/cmsis_gcc.h **** 
 514:Drivers/CMSIS/Include/cmsis_gcc.h ****    __ASM volatile ("strexh %0, %2, %1" : "=&r" (result), "=Q" (*addr) : "r" ((uint32_t)value) );
 515:Drivers/CMSIS/Include/cmsis_gcc.h ****    return(result);
 516:Drivers/CMSIS/Include/cmsis_gcc.h **** }
 517:Drivers/CMSIS/Include/cmsis_gcc.h **** 
 518:Drivers/CMSIS/Include/cmsis_gcc.h **** 
 519:Drivers/CMSIS/Include/cmsis_gcc.h **** /**
 520:Drivers/CMSIS/Include/cmsis_gcc.h ****   \brief   STR Exclusive (32 bit)
 521:Drivers/CMSIS/Include/cmsis_gcc.h ****   \details Executes a exclusive STR instruction for 32 bit values.
 522:Drivers/CMSIS/Include/cmsis_gcc.h ****   \param [in]  value  Value to store
 523:Drivers/CMSIS/Include/cmsis_gcc.h ****   \param [in]    ptr  Pointer to location
 524:Drivers/CMSIS/Include/cmsis_gcc.h ****   \return          0  Function succeeded
 525:Drivers/CMSIS/Include/cmsis_gcc.h ****   \return          1  Function failed
 526:Drivers/CMSIS/Include/cmsis_gcc.h ****  */
 527:Drivers/CMSIS/Include/cmsis_gcc.h **** __STATIC_FORCEINLINE uint32_t __STREXW(uint32_t value, volatile uint32_t *addr)
 528:Drivers/CMSIS/Include/cmsis_gcc.h **** {
 529:Drivers/CMSIS/Include/cmsis_gcc.h ****    uint32_t result;
 530:Drivers/CMSIS/Include/cmsis_gcc.h **** 
 531:Drivers/CMSIS/Include/cmsis_gcc.h ****    __ASM volatile ("strex %0, %2, %1" : "=&r" (result), "=Q" (*addr) : "r" (value) );
 532:Drivers/CMSIS/Include/cmsis_gcc.h ****    return(result);
 533:Drivers/CMSIS/Include/cmsis_gcc.h **** }
 534:Drivers/CMSIS/Include/cmsis_gcc.h **** 
ARM GAS  C:\Users\BANELE~1\AppData\Local\Temp\cc8Zst6e.s 			page 82


 535:Drivers/CMSIS/Include/cmsis_gcc.h **** 
 536:Drivers/CMSIS/Include/cmsis_gcc.h **** /**
 537:Drivers/CMSIS/Include/cmsis_gcc.h ****   \brief   Remove the exclusive lock
 538:Drivers/CMSIS/Include/cmsis_gcc.h ****   \details Removes the exclusive lock which is created by LDREX.
 539:Drivers/CMSIS/Include/cmsis_gcc.h ****  */
 540:Drivers/CMSIS/Include/cmsis_gcc.h **** __STATIC_FORCEINLINE void __CLREX(void)
 541:Drivers/CMSIS/Include/cmsis_gcc.h **** {
 542:Drivers/CMSIS/Include/cmsis_gcc.h ****   __ASM volatile ("clrex" ::: "memory");
 543:Drivers/CMSIS/Include/cmsis_gcc.h **** }
 544:Drivers/CMSIS/Include/cmsis_gcc.h **** 
 545:Drivers/CMSIS/Include/cmsis_gcc.h **** #endif /* ((defined (__ARM_ARCH_7M__      ) && (__ARM_ARCH_7M__      == 1)) || \
 546:Drivers/CMSIS/Include/cmsis_gcc.h ****            (defined (__ARM_ARCH_7EM__     ) && (__ARM_ARCH_7EM__     == 1)) || \
 547:Drivers/CMSIS/Include/cmsis_gcc.h ****            (defined (__ARM_ARCH_8M_MAIN__ ) && (__ARM_ARCH_8M_MAIN__ == 1)) || \
 548:Drivers/CMSIS/Include/cmsis_gcc.h ****            (defined (__ARM_ARCH_8M_BASE__ ) && (__ARM_ARCH_8M_BASE__ == 1))    ) */
 549:Drivers/CMSIS/Include/cmsis_gcc.h **** 
 550:Drivers/CMSIS/Include/cmsis_gcc.h **** 
 551:Drivers/CMSIS/Include/cmsis_gcc.h **** #if ((defined (__ARM_ARCH_7M__      ) && (__ARM_ARCH_7M__      == 1)) || \
 552:Drivers/CMSIS/Include/cmsis_gcc.h ****      (defined (__ARM_ARCH_7EM__     ) && (__ARM_ARCH_7EM__     == 1)) || \
 553:Drivers/CMSIS/Include/cmsis_gcc.h ****      (defined (__ARM_ARCH_8M_MAIN__ ) && (__ARM_ARCH_8M_MAIN__ == 1))    )
 554:Drivers/CMSIS/Include/cmsis_gcc.h **** /**
 555:Drivers/CMSIS/Include/cmsis_gcc.h ****   \brief   Signed Saturate
 556:Drivers/CMSIS/Include/cmsis_gcc.h ****   \details Saturates a signed value.
 557:Drivers/CMSIS/Include/cmsis_gcc.h ****   \param [in]  ARG1  Value to be saturated
 558:Drivers/CMSIS/Include/cmsis_gcc.h ****   \param [in]  ARG2  Bit position to saturate to (1..32)
 559:Drivers/CMSIS/Include/cmsis_gcc.h ****   \return             Saturated value
 560:Drivers/CMSIS/Include/cmsis_gcc.h ****  */
 561:Drivers/CMSIS/Include/cmsis_gcc.h **** #define __SSAT(ARG1, ARG2) \
 562:Drivers/CMSIS/Include/cmsis_gcc.h **** __extension__ \
 563:Drivers/CMSIS/Include/cmsis_gcc.h **** ({                          \
 564:Drivers/CMSIS/Include/cmsis_gcc.h ****   int32_t __RES, __ARG1 = (ARG1); \
 565:Drivers/CMSIS/Include/cmsis_gcc.h ****   __ASM volatile ("ssat %0, %1, %2" : "=r" (__RES) :  "I" (ARG2), "r" (__ARG1) : "cc" ); \
 566:Drivers/CMSIS/Include/cmsis_gcc.h ****   __RES; \
 567:Drivers/CMSIS/Include/cmsis_gcc.h ****  })
 568:Drivers/CMSIS/Include/cmsis_gcc.h **** 
 569:Drivers/CMSIS/Include/cmsis_gcc.h **** 
 570:Drivers/CMSIS/Include/cmsis_gcc.h **** /**
 571:Drivers/CMSIS/Include/cmsis_gcc.h ****   \brief   Unsigned Saturate
 572:Drivers/CMSIS/Include/cmsis_gcc.h ****   \details Saturates an unsigned value.
 573:Drivers/CMSIS/Include/cmsis_gcc.h ****   \param [in]  ARG1  Value to be saturated
 574:Drivers/CMSIS/Include/cmsis_gcc.h ****   \param [in]  ARG2  Bit position to saturate to (0..31)
 575:Drivers/CMSIS/Include/cmsis_gcc.h ****   \return             Saturated value
 576:Drivers/CMSIS/Include/cmsis_gcc.h ****  */
 577:Drivers/CMSIS/Include/cmsis_gcc.h **** #define __USAT(ARG1, ARG2) \
 578:Drivers/CMSIS/Include/cmsis_gcc.h **** __extension__ \
 579:Drivers/CMSIS/Include/cmsis_gcc.h **** ({                          \
 580:Drivers/CMSIS/Include/cmsis_gcc.h ****   uint32_t __RES, __ARG1 = (ARG1); \
 581:Drivers/CMSIS/Include/cmsis_gcc.h ****   __ASM volatile ("usat %0, %1, %2" : "=r" (__RES) :  "I" (ARG2), "r" (__ARG1) : "cc" ); \
 582:Drivers/CMSIS/Include/cmsis_gcc.h ****   __RES; \
 583:Drivers/CMSIS/Include/cmsis_gcc.h ****  })
 584:Drivers/CMSIS/Include/cmsis_gcc.h **** 
 585:Drivers/CMSIS/Include/cmsis_gcc.h **** 
 586:Drivers/CMSIS/Include/cmsis_gcc.h **** /**
 587:Drivers/CMSIS/Include/cmsis_gcc.h ****   \brief   Rotate Right with Extend (32 bit)
 588:Drivers/CMSIS/Include/cmsis_gcc.h ****   \details Moves each bit of a bitstring right by one bit.
 589:Drivers/CMSIS/Include/cmsis_gcc.h ****            The carry input is shifted in at the left end of the bitstring.
 590:Drivers/CMSIS/Include/cmsis_gcc.h ****   \param [in]    value  Value to rotate
 591:Drivers/CMSIS/Include/cmsis_gcc.h ****   \return               Rotated value
ARM GAS  C:\Users\BANELE~1\AppData\Local\Temp\cc8Zst6e.s 			page 83


 592:Drivers/CMSIS/Include/cmsis_gcc.h ****  */
 593:Drivers/CMSIS/Include/cmsis_gcc.h **** __STATIC_FORCEINLINE uint32_t __RRX(uint32_t value)
 594:Drivers/CMSIS/Include/cmsis_gcc.h **** {
 595:Drivers/CMSIS/Include/cmsis_gcc.h ****   uint32_t result;
 596:Drivers/CMSIS/Include/cmsis_gcc.h **** 
 597:Drivers/CMSIS/Include/cmsis_gcc.h ****   __ASM volatile ("rrx %0, %1" : __CMSIS_GCC_OUT_REG (result) : __CMSIS_GCC_USE_REG (value) );
 598:Drivers/CMSIS/Include/cmsis_gcc.h ****   return(result);
 599:Drivers/CMSIS/Include/cmsis_gcc.h **** }
 600:Drivers/CMSIS/Include/cmsis_gcc.h **** 
 601:Drivers/CMSIS/Include/cmsis_gcc.h **** 
 602:Drivers/CMSIS/Include/cmsis_gcc.h **** /**
 603:Drivers/CMSIS/Include/cmsis_gcc.h ****   \brief   LDRT Unprivileged (8 bit)
 604:Drivers/CMSIS/Include/cmsis_gcc.h ****   \details Executes a Unprivileged LDRT instruction for 8 bit value.
 605:Drivers/CMSIS/Include/cmsis_gcc.h ****   \param [in]    ptr  Pointer to data
 606:Drivers/CMSIS/Include/cmsis_gcc.h ****   \return             value of type uint8_t at (*ptr)
 607:Drivers/CMSIS/Include/cmsis_gcc.h ****  */
 608:Drivers/CMSIS/Include/cmsis_gcc.h **** __STATIC_FORCEINLINE uint8_t __LDRBT(volatile uint8_t *ptr)
 609:Drivers/CMSIS/Include/cmsis_gcc.h **** {
 610:Drivers/CMSIS/Include/cmsis_gcc.h ****     uint32_t result;
 611:Drivers/CMSIS/Include/cmsis_gcc.h **** 
 612:Drivers/CMSIS/Include/cmsis_gcc.h **** #if (__GNUC__ > 4) || (__GNUC__ == 4 && __GNUC_MINOR__ >= 8)
 613:Drivers/CMSIS/Include/cmsis_gcc.h ****    __ASM volatile ("ldrbt %0, %1" : "=r" (result) : "Q" (*ptr) );
 614:Drivers/CMSIS/Include/cmsis_gcc.h **** #else
 615:Drivers/CMSIS/Include/cmsis_gcc.h ****     /* Prior to GCC 4.8, "Q" will be expanded to [rx, #0] which is not
 616:Drivers/CMSIS/Include/cmsis_gcc.h ****        accepted by assembler. So has to use following less efficient pattern.
 617:Drivers/CMSIS/Include/cmsis_gcc.h ****     */
 618:Drivers/CMSIS/Include/cmsis_gcc.h ****    __ASM volatile ("ldrbt %0, [%1]" : "=r" (result) : "r" (ptr) : "memory" );
 619:Drivers/CMSIS/Include/cmsis_gcc.h **** #endif
 620:Drivers/CMSIS/Include/cmsis_gcc.h ****    return ((uint8_t) result);    /* Add explicit type cast here */
 621:Drivers/CMSIS/Include/cmsis_gcc.h **** }
 622:Drivers/CMSIS/Include/cmsis_gcc.h **** 
 623:Drivers/CMSIS/Include/cmsis_gcc.h **** 
 624:Drivers/CMSIS/Include/cmsis_gcc.h **** /**
 625:Drivers/CMSIS/Include/cmsis_gcc.h ****   \brief   LDRT Unprivileged (16 bit)
 626:Drivers/CMSIS/Include/cmsis_gcc.h ****   \details Executes a Unprivileged LDRT instruction for 16 bit values.
 627:Drivers/CMSIS/Include/cmsis_gcc.h ****   \param [in]    ptr  Pointer to data
 628:Drivers/CMSIS/Include/cmsis_gcc.h ****   \return        value of type uint16_t at (*ptr)
 629:Drivers/CMSIS/Include/cmsis_gcc.h ****  */
 630:Drivers/CMSIS/Include/cmsis_gcc.h **** __STATIC_FORCEINLINE uint16_t __LDRHT(volatile uint16_t *ptr)
 631:Drivers/CMSIS/Include/cmsis_gcc.h **** {
 632:Drivers/CMSIS/Include/cmsis_gcc.h ****     uint32_t result;
 633:Drivers/CMSIS/Include/cmsis_gcc.h **** 
 634:Drivers/CMSIS/Include/cmsis_gcc.h **** #if (__GNUC__ > 4) || (__GNUC__ == 4 && __GNUC_MINOR__ >= 8)
 635:Drivers/CMSIS/Include/cmsis_gcc.h ****    __ASM volatile ("ldrht %0, %1" : "=r" (result) : "Q" (*ptr) );
 636:Drivers/CMSIS/Include/cmsis_gcc.h **** #else
 637:Drivers/CMSIS/Include/cmsis_gcc.h ****     /* Prior to GCC 4.8, "Q" will be expanded to [rx, #0] which is not
 638:Drivers/CMSIS/Include/cmsis_gcc.h ****        accepted by assembler. So has to use following less efficient pattern.
 639:Drivers/CMSIS/Include/cmsis_gcc.h ****     */
 640:Drivers/CMSIS/Include/cmsis_gcc.h ****    __ASM volatile ("ldrht %0, [%1]" : "=r" (result) : "r" (ptr) : "memory" );
 641:Drivers/CMSIS/Include/cmsis_gcc.h **** #endif
 642:Drivers/CMSIS/Include/cmsis_gcc.h ****    return ((uint16_t) result);    /* Add explicit type cast here */
 643:Drivers/CMSIS/Include/cmsis_gcc.h **** }
 644:Drivers/CMSIS/Include/cmsis_gcc.h **** 
 645:Drivers/CMSIS/Include/cmsis_gcc.h **** 
 646:Drivers/CMSIS/Include/cmsis_gcc.h **** /**
 647:Drivers/CMSIS/Include/cmsis_gcc.h ****   \brief   LDRT Unprivileged (32 bit)
 648:Drivers/CMSIS/Include/cmsis_gcc.h ****   \details Executes a Unprivileged LDRT instruction for 32 bit values.
ARM GAS  C:\Users\BANELE~1\AppData\Local\Temp\cc8Zst6e.s 			page 84


 649:Drivers/CMSIS/Include/cmsis_gcc.h ****   \param [in]    ptr  Pointer to data
 650:Drivers/CMSIS/Include/cmsis_gcc.h ****   \return        value of type uint32_t at (*ptr)
 651:Drivers/CMSIS/Include/cmsis_gcc.h ****  */
 652:Drivers/CMSIS/Include/cmsis_gcc.h **** __STATIC_FORCEINLINE uint32_t __LDRT(volatile uint32_t *ptr)
 653:Drivers/CMSIS/Include/cmsis_gcc.h **** {
 654:Drivers/CMSIS/Include/cmsis_gcc.h ****     uint32_t result;
 655:Drivers/CMSIS/Include/cmsis_gcc.h **** 
 656:Drivers/CMSIS/Include/cmsis_gcc.h ****    __ASM volatile ("ldrt %0, %1" : "=r" (result) : "Q" (*ptr) );
 657:Drivers/CMSIS/Include/cmsis_gcc.h ****    return(result);
 658:Drivers/CMSIS/Include/cmsis_gcc.h **** }
 659:Drivers/CMSIS/Include/cmsis_gcc.h **** 
 660:Drivers/CMSIS/Include/cmsis_gcc.h **** 
 661:Drivers/CMSIS/Include/cmsis_gcc.h **** /**
 662:Drivers/CMSIS/Include/cmsis_gcc.h ****   \brief   STRT Unprivileged (8 bit)
 663:Drivers/CMSIS/Include/cmsis_gcc.h ****   \details Executes a Unprivileged STRT instruction for 8 bit values.
 664:Drivers/CMSIS/Include/cmsis_gcc.h ****   \param [in]  value  Value to store
 665:Drivers/CMSIS/Include/cmsis_gcc.h ****   \param [in]    ptr  Pointer to location
 666:Drivers/CMSIS/Include/cmsis_gcc.h ****  */
 667:Drivers/CMSIS/Include/cmsis_gcc.h **** __STATIC_FORCEINLINE void __STRBT(uint8_t value, volatile uint8_t *ptr)
 668:Drivers/CMSIS/Include/cmsis_gcc.h **** {
 669:Drivers/CMSIS/Include/cmsis_gcc.h ****    __ASM volatile ("strbt %1, %0" : "=Q" (*ptr) : "r" ((uint32_t)value) );
 670:Drivers/CMSIS/Include/cmsis_gcc.h **** }
 671:Drivers/CMSIS/Include/cmsis_gcc.h **** 
 672:Drivers/CMSIS/Include/cmsis_gcc.h **** 
 673:Drivers/CMSIS/Include/cmsis_gcc.h **** /**
 674:Drivers/CMSIS/Include/cmsis_gcc.h ****   \brief   STRT Unprivileged (16 bit)
 675:Drivers/CMSIS/Include/cmsis_gcc.h ****   \details Executes a Unprivileged STRT instruction for 16 bit values.
 676:Drivers/CMSIS/Include/cmsis_gcc.h ****   \param [in]  value  Value to store
 677:Drivers/CMSIS/Include/cmsis_gcc.h ****   \param [in]    ptr  Pointer to location
 678:Drivers/CMSIS/Include/cmsis_gcc.h ****  */
 679:Drivers/CMSIS/Include/cmsis_gcc.h **** __STATIC_FORCEINLINE void __STRHT(uint16_t value, volatile uint16_t *ptr)
 680:Drivers/CMSIS/Include/cmsis_gcc.h **** {
 681:Drivers/CMSIS/Include/cmsis_gcc.h ****    __ASM volatile ("strht %1, %0" : "=Q" (*ptr) : "r" ((uint32_t)value) );
 682:Drivers/CMSIS/Include/cmsis_gcc.h **** }
 683:Drivers/CMSIS/Include/cmsis_gcc.h **** 
 684:Drivers/CMSIS/Include/cmsis_gcc.h **** 
 685:Drivers/CMSIS/Include/cmsis_gcc.h **** /**
 686:Drivers/CMSIS/Include/cmsis_gcc.h ****   \brief   STRT Unprivileged (32 bit)
 687:Drivers/CMSIS/Include/cmsis_gcc.h ****   \details Executes a Unprivileged STRT instruction for 32 bit values.
 688:Drivers/CMSIS/Include/cmsis_gcc.h ****   \param [in]  value  Value to store
 689:Drivers/CMSIS/Include/cmsis_gcc.h ****   \param [in]    ptr  Pointer to location
 690:Drivers/CMSIS/Include/cmsis_gcc.h ****  */
 691:Drivers/CMSIS/Include/cmsis_gcc.h **** __STATIC_FORCEINLINE void __STRT(uint32_t value, volatile uint32_t *ptr)
 692:Drivers/CMSIS/Include/cmsis_gcc.h **** {
 693:Drivers/CMSIS/Include/cmsis_gcc.h ****    __ASM volatile ("strt %1, %0" : "=Q" (*ptr) : "r" (value) );
 694:Drivers/CMSIS/Include/cmsis_gcc.h **** }
 695:Drivers/CMSIS/Include/cmsis_gcc.h **** 
 696:Drivers/CMSIS/Include/cmsis_gcc.h **** #else  /* ((defined (__ARM_ARCH_7M__      ) && (__ARM_ARCH_7M__      == 1)) || \
 697:Drivers/CMSIS/Include/cmsis_gcc.h ****            (defined (__ARM_ARCH_7EM__     ) && (__ARM_ARCH_7EM__     == 1)) || \
 698:Drivers/CMSIS/Include/cmsis_gcc.h ****            (defined (__ARM_ARCH_8M_MAIN__ ) && (__ARM_ARCH_8M_MAIN__ == 1))    ) */
 699:Drivers/CMSIS/Include/cmsis_gcc.h **** 
 700:Drivers/CMSIS/Include/cmsis_gcc.h **** /**
 701:Drivers/CMSIS/Include/cmsis_gcc.h ****   \brief   Signed Saturate
 702:Drivers/CMSIS/Include/cmsis_gcc.h ****   \details Saturates a signed value.
 703:Drivers/CMSIS/Include/cmsis_gcc.h ****   \param [in]  value  Value to be saturated
 704:Drivers/CMSIS/Include/cmsis_gcc.h ****   \param [in]    sat  Bit position to saturate to (1..32)
 705:Drivers/CMSIS/Include/cmsis_gcc.h ****   \return             Saturated value
ARM GAS  C:\Users\BANELE~1\AppData\Local\Temp\cc8Zst6e.s 			page 85


 706:Drivers/CMSIS/Include/cmsis_gcc.h ****  */
 707:Drivers/CMSIS/Include/cmsis_gcc.h **** __STATIC_FORCEINLINE int32_t __SSAT(int32_t val, uint32_t sat)
 708:Drivers/CMSIS/Include/cmsis_gcc.h **** {
 709:Drivers/CMSIS/Include/cmsis_gcc.h ****   if ((sat >= 1U) && (sat <= 32U))
 710:Drivers/CMSIS/Include/cmsis_gcc.h ****   {
 711:Drivers/CMSIS/Include/cmsis_gcc.h ****     const int32_t max = (int32_t)((1U << (sat - 1U)) - 1U);
 712:Drivers/CMSIS/Include/cmsis_gcc.h ****     const int32_t min = -1 - max ;
 713:Drivers/CMSIS/Include/cmsis_gcc.h ****     if (val > max)
 714:Drivers/CMSIS/Include/cmsis_gcc.h ****     {
 715:Drivers/CMSIS/Include/cmsis_gcc.h ****       return max;
 716:Drivers/CMSIS/Include/cmsis_gcc.h ****     }
 717:Drivers/CMSIS/Include/cmsis_gcc.h ****     else if (val < min)
 718:Drivers/CMSIS/Include/cmsis_gcc.h ****     {
 719:Drivers/CMSIS/Include/cmsis_gcc.h ****       return min;
 720:Drivers/CMSIS/Include/cmsis_gcc.h ****     }
 721:Drivers/CMSIS/Include/cmsis_gcc.h ****   }
 722:Drivers/CMSIS/Include/cmsis_gcc.h ****   return val;
 723:Drivers/CMSIS/Include/cmsis_gcc.h **** }
 724:Drivers/CMSIS/Include/cmsis_gcc.h **** 
 725:Drivers/CMSIS/Include/cmsis_gcc.h **** /**
 726:Drivers/CMSIS/Include/cmsis_gcc.h ****   \brief   Unsigned Saturate
 727:Drivers/CMSIS/Include/cmsis_gcc.h ****   \details Saturates an unsigned value.
 728:Drivers/CMSIS/Include/cmsis_gcc.h ****   \param [in]  value  Value to be saturated
 729:Drivers/CMSIS/Include/cmsis_gcc.h ****   \param [in]    sat  Bit position to saturate to (0..31)
 730:Drivers/CMSIS/Include/cmsis_gcc.h ****   \return             Saturated value
 731:Drivers/CMSIS/Include/cmsis_gcc.h ****  */
 732:Drivers/CMSIS/Include/cmsis_gcc.h **** __STATIC_FORCEINLINE uint32_t __USAT(int32_t val, uint32_t sat)
